#SYMBOLS
Index	Identifier	Type	Flag	Data	Size	RefCount
0	__signed_stack_002PlaySound	6	1	0	4	14
1	__signed_stack_003PlaySound	6	1	4	4	14
2	__signed_stack_001main	6	1	8	4	18
3	__signed_stack_001PlaySound	6	1	12	4	44
4	__signed_stack_001testRoute	6	1	16	4	4
5	__signed_stack_002testRoute	6	1	20	4	3
6	__signed_stack_001rotateMotorsToDegrees	6	1	24	4	4
7	__signed_stack_001rotateMotorToDegree	6	1	28	4	2
8	__signed_stack_002goToCoordinate	6	1	32	4	8
9	__D0PosRegSetAngle_inline_rotateMotorToDegree	6	1	36	4	2
10	__D0PosRegSetMax_inline_main	6	1	40	4	6
11	__D0PosRegSetAngle_inline_main	6	1	44	4	4
12	__D0PosRegSetAngle_inline_rotateMotorsToDegrees	6	1	48	4	4
13	__unsigned_stack_001checkMessage	5	1	52	4	8
14	__signed_stack_001goToCoordinate	6	1	56	4	24
15	__signed_stack_001checkMessage	6	1	60	4	44
16	__signed_stack_002checkMessage	6	1	64	4	26
17	__signed_stack_001timeKeeping	6	1	68	4	4
18	__signed_stack_001PosRegSetAngle_inline_rotateMotorToDegree	6	1	72	4	2
19	__unsigned_stack_001PosRegSetMax_inline_main	5	1	76	4	6
20	__signed_stack_001PosRegSetAngle_inline_main	6	1	80	4	4
21	__signed_stack_001PosRegSetAngle_inline_rotateMotorsToDegrees	6	1	84	4	4
22	__PosRegSetAngle_7qG2_angle_7qG2_000_inline_rotateMotorToDegree	6	1	88	4	2
23	startTime	6	1	92	4	2
24	__unsigned_stack_002PosRegSetMax_inline_main	5	1	96	4	6
25	__Wait_7qG2_ms_7qG2_000_inline_rotateMotorToDegree	5	1	100	4	2
26	__unsigned_stack_008PosRegEnable_inline_main	5	1	104	4	6
27	__signed_stack_002PosRegEnable_inline_main	6	1	108	4	6
28	__signed_stack_003PosRegEnable_inline_main	6	1	112	4	6
29	__unsigned_stack_001timeKeeping	5	1	116	4	2
30	__signed_stack_001PosRegEnable_inline_main	6	1	120	4	6
31	__unsigned_stack_006PosRegEnable_inline_main	5	1	124	4	6
32	__unsigned_stack_007PosRegEnable_inline_main	5	1	128	4	6
33	__signed_stack_004PosRegEnable_inline_main	6	1	132	4	6
34	__signed_stack_005PosRegEnable_inline_main	6	1	136	4	6
35	__D0PosRegEnable_inline_main	6	1	140	4	6
36	__SPTArgsMutex	9	0	144	4	14
37	__timeKeeping_7qG2_deltaTime_7qG2_001	6	1	148	4	2
38	__constVal140000	6	0	152	4	1
39	__Wait_7qG2_ms_7qG2_000_inline_rotateMotorsToDegrees	5	1	156	4	2
40	__DU0checkMessage	5	1	160	4	7
41	__D0checkMessage	6	1	164	4	63
42	__Wait_7qG2_ms_7qG2_000_inline_timeKeeping	5	1	168	4	2
43	__IOMWMutex	9	0	172	4	4
44	__RBtnMutex	9	0	176	4	2
45	__PosRegSetAngle_7qG2_angle_7qG2_000_inline_main	6	1	180	4	4
46	__constVal131073	6	0	184	4	2
47	__Wait_7qG2_ms_7qG2_000_inline_PosRegSetMax_inline_main	5	1	188	4	6
48	__Wait_7qG2_ms_7qG2_000_inline_PosRegEnable_inline_main	5	1	192	4	6
49	__PosRegSetAngle_7qG2_angle_7qG2_000_inline_rotateMotorsToDegrees	6	1	196	4	4
50	__D0rotateMotorToDegree	6	1	200	4	4
51	__D0rotateMotorsToDegrees	6	1	204	4	8
52	__D0PlaySound	6	1	208	4	69
53	__DU0timeKeeping	5	1	212	4	2
54	__D0timeKeeping	6	1	216	4	12
55	__D0testRoute	6	1	220	4	10
56	__D0main	6	1	224	4	26
57	__D0goToCoordinate	6	1	228	4	40
58	__DU0main	5	1	232	4	4
59	__rotateMotorsToDegrees_7qG2_motorA_7qG2_000	4	1	236	2	3
60	__rotateMotorToDegree_7qG2_degree_7qG2_000	4	1	238	2	10
61	__main_7qG2_x_7qG2_005	4	1	240	2	3
62	__constValNeg410	4	0	242	2	1
63	__main_7qG2_y_7qG2_005	4	1	244	2	3
64	continueExecutionFlag	4	0	246	2	4
65	INBOX	4	1	248	2	2
66	OUTBOX	4	0	250	2	1
67	__rotateMotorToDegree_7qG2_motor_7qG2_000	4	1	252	2	10
68	__testRoute_7qG2_i_7qG2_001	4	1	254	2	6
69	__checkMessage_7qG2_i_7qG2_003	4	1	256	2	27
70	__rotateMotorsToDegrees_7qG2_motorB_7qG2_000	4	1	258	2	3
71	__rotateMotorsToDegrees_7qG2_degreeA_7qG2_000	4	1	260	2	3
72	__goToCoordinate_7qG2_sY_7qG2_000	4	1	262	2	6
73	__rotateMotorsToDegrees_7qG2_degreeB_7qG2_000	4	1	264	2	3
74	__goToCoordinate_7qG2_sX_7qG2_000	4	1	266	2	6
75	__main_7qG2_i_7qG2_003	4	1	268	2	10
76	__checkMessage_7qG2_k_7qG2_003	4	1	270	2	12
77	__main_7qG2_Y_7qG2_001	4	1	272	2	2
78	__constValNeg300	4	0	274	2	2
79	__main_7qG2_X_7qG2_001	4	1	276	2	2
80	degreeBetweenYTile	4	0	278	2	3
81	oldX	4	0	280	2	3
82	degreeBetweenXTile	4	0	282	2	3
83	__PlaySound_7qG2_aCode_7qG2_000	4	1	284	2	7
84	lengthAllRoutes	4	1	286	2	4
85	oldY	4	0	288	2	3
86	__PlaySound_7qG2_i_7qG2_001	4	1	290	2	15
87	Y0	4	1	292	2	3
88	X0	4	1	294	2	3
89	__ClearLine_7qG2_line_7qG2_000_inline_checkMessage	1	1	296	1	2
90	__PosRegEnable_7qG2_p_7qG2_000_inline_main	1	1	297	1	6
91	__PlaySound_return	1	1	298	1	3
92	__PosRegEnable_7qG2_d_7qG2_000_inline_main	1	1	299	1	6
93	__rotateMotorsToDegrees_return	1	1	300	1	3
94	__PosRegEnable_7qG2_i_7qG2_000_inline_main	1	1	301	1	6
95	__constVal97	2	0	302	1	1
96	__PosRegSetMax_7qG2_output_7qG2_000_inline_main	1	1	303	1	6
97	____initialize_global_data_return	1	1	304	1	3
98	__constVal96	2	0	305	1	2
99	__constVal10	2	0	306	1	1
100	__PosRegEnable_7qG2_output_7qG2_000_inline_main	1	1	307	1	6
101	__PosRegSetMax_7qG2_max_speed_7qG2_000_inline_main	1	1	308	1	6
102	__PosRegSetMax_7qG2_max_acceleration_7qG2_000_inline_main	1	1	309	1	6
103	__PosRegSetAngle_7qG2_output_7qG2_000_inline_rotateMotorsToDegrees	1	1	310	1	4
104	__PosRegSetAngle_7qG2_output_7qG2_000_inline_rotateMotorToDegree	1	1	311	1	2
105	__rotateMotorToDegree_return	1	1	312	1	10
106	__checkMessage_return	1	1	313	1	4
107	__PosRegSetAngle_7qG2_output_7qG2_000_inline_main	1	1	314	1	4
108	newRoute	1	1	315	1	4
109	__constVal32	2	0	316	1	2
110	__testRoute_return	1	1	317	1	3
111	startTimer	1	1	318	1	4
112	__constValNeg100	2	0	319	1	1
113	__checkMessage_7qG2_result_7qG2_001	2	1	320	1	4
114	__goToCoordinate_return	1	1	321	1	3
115	__checkMessage_7qG2_checkInformation_7qG2_000	1	1	322	1	2
116	__constVal1	2	0	323	1	17
117	__constVal0	2	1	324	1	3
118	__checkMessage_7qG2_checkPath_7qG2_000	1	1	325	1	5
119	__MRArgs	8	0	4	8	11
120	__MRArgs.Result	2	1	328	1	11
121	__MRArgs.QueueID	1	1	329	1	11
122	__MRArgs.Remove	1	1	330	1	11
123	__MRArgs.Message	7	0	332	4	11
124	__MRArgs.Message.Message_type	1	0	0	1	0
125	__RBtnArgs	8	0	5	8	4
126	__RBtnArgs.Result	2	1	336	1	4
127	__RBtnArgs.Index	1	1	337	1	4
128	__RBtnArgs.Pressed	1	1	338	1	4
129	__RBtnArgs.Count	1	1	339	1	4
130	__RBtnArgs.Reset	1	1	340	1	4
131	__TextOutArgs	8	0	4	16	59
132	__TextOutArgs.Result	2	1	344	1	59
133	__TextOutArgs.Location	8	0	2	4	59
134	__TextOutArgs.Location.X	4	1	348	2	59
135	__TextOutArgs.Location.Y	4	1	350	2	59
136	__TextOutArgs.Text	7	0	352	4	59
137	__TextOutArgs.Text.Text_type	1	0	0	1	0
138	__TextOutArgs.Options	5	1	356	4	59
139	__SPTArgs	8	0	5	8	42
140	__SPTArgs.Result	2	1	360	1	42
141	__SPTArgs.Frequency	3	1	362	2	42
142	__SPTArgs.Duration	3	1	364	2	42
143	__SPTArgs.Loop	1	1	366	1	42
144	__SPTArgs.Volume	1	1	367	1	42
145	__MWArgs	8	0	3	8	4
146	__MWArgs.Result	2	1	368	1	4
147	__MWArgs.QueueID	1	1	369	1	4
148	__MWArgs.Message	7	0	370	4	4
149	__MWArgs.Message.Message_type	1	0	0	1	0
150	__IOMWBIArgs	8	0	4	16	8
151	__IOMWBIArgs.Result	2	1	372	1	8
152	__IOMWBIArgs.ModuleID	5	1	376	4	8
153	__IOMWBIArgs.Offset	3	1	380	2	8
154	__IOMWBIArgs.Buffer	7	0	382	4	8
155	__IOMWBIArgs.Buffer.Buffer_type	1	0	0	1	0
156	__BlankLine	7	0	384	4	1
157	__BlankLine.__BlankLine_type	1	0	0	1	0
158	__IOMWFlattenBuf	7	0	386	4	4
159	__IOMWFlattenBuf.__IOMWFlattenBuf_type	1	0	0	1	0
160	__constStr0013	7	0	388	4	1
161	__constStr0013.__constStr0013_type	1	1	0	1	0
162	__constStr0012	7	0	390	4	1
163	__constStr0012.__constStr0012_type	1	1	0	1	0
164	__constStr0011	7	0	392	4	1
165	__constStr0011.__constStr0011_type	1	1	0	1	0
166	__checkMessage_7qG2_value_7qG2_003	7	0	394	4	18
167	__checkMessage_7qG2_value_7qG2_003.__checkMessage_7qG2_value_7qG2_003_type	1	0	0	1	0
168	__constStr0015	7	0	396	4	1
169	__constStr0015.__constStr0015_type	1	1	0	1	0
170	__constStr0014	7	0	398	4	1
171	__constStr0014.__constStr0014_type	1	1	0	1	0
172	__checkMessage_7qG2_buffer_7qG2_000	7	0	400	4	17
173	__checkMessage_7qG2_buffer_7qG2_000.__checkMessage_7qG2_buffer_7qG2_000_type	1	0	0	1	0
174	moves	7	0	402	4	7
175	moves.moves_type	4	0	0	2	0
176	allRoutes	7	0	404	4	3
177	allRoutes.allRoutes_type	1	0	0	1	0
178	__constStr0010	7	0	406	4	1
179	__constStr0010.__constStr0010_type	1	1	0	1	0
180	__constStr0009	7	0	408	4	5
181	__constStr0009.__constStr0009_type	1	1	0	1	0
182	__checkMessage_7qG2_buffer1_7qG2_000	7	0	410	4	4
183	__checkMessage_7qG2_buffer1_7qG2_000.__checkMessage_7qG2_buffer1_7qG2_000_type	1	0	0	1	0
184	__strcat_7qG2_dest_7qG2_000_inline_checkMessage	7	0	412	4	3
185	__strcat_7qG2_dest_7qG2_000_inline_checkMessage.__strcat_7qG2_dest_7qG2_000_inline_checkMessage_type	1	0	0	1	0
186	__strbufcheckMessage	7	0	414	4	78
187	__strbufcheckMessage.__strbufcheckMessage_type	1	0	0	1	0
188	__strretvalcheckMessage	7	0	416	4	12
189	__strretvalcheckMessage.__strretvalcheckMessage_type	1	0	0	1	0
190	__strbuftestRoute	7	0	418	4	6
191	__strbuftestRoute.__strbuftestRoute_type	1	0	0	1	0
192	__ArrHelper__checkMessage_244_0	7	0	420	4	2
193	__ArrHelper__checkMessage_244_0.__ArrHelper__checkMessage_244_0_type	1	0	0	1	0
194	__ArrHelper__checkMessage_244_1	7	0	422	4	2
195	__ArrHelper__checkMessage_244_1.__ArrHelper__checkMessage_244_1_type	1	0	0	1	0
196	__strtmpbufcheckMessage	7	0	424	4	8
197	__strtmpbufcheckMessage.__strtmpbufcheckMessage_type	1	0	0	1	0
198	__constStr0017	7	0	426	4	1
199	__constStr0017.__constStr0017_type	1	1	0	1	0
200	__constStr0016	7	0	428	4	1
201	__constStr0016.__constStr0016_type	1	1	0	1	0
202	__strcat_7qG2_src_7qG2_000_inline_checkMessage	7	0	430	4	2
203	__strcat_7qG2_src_7qG2_000_inline_checkMessage.__strcat_7qG2_src_7qG2_000_inline_checkMessage_type	1	0	0	1	0
204	__strretvaltestRoute	7	0	432	4	2
205	__strretvaltestRoute.__strretvaltestRoute_type	1	0	0	1	0
206	__strbufstrcat_inline_checkMessage	7	0	434	4	4
207	__strbufstrcat_inline_checkMessage.__strbufstrcat_inline_checkMessage_type	1	0	0	1	0
208	__constStr0018	7	0	436	4	1
209	__constStr0018.__constStr0018_type	1	1	0	1	0
#SOURCES
Clump	Line	PC	Source
0	183	0	#line 183 "C:\Users\stan\Desktop\Lund\LegoRobotRuzzle\Opencv_WebCa\NXT\Working_with_bluetooth - Copie.nxc"
0	184	0		subcall __initialize_global_data, ____initialize_global_data_return
0	183	2	#line 183 "C:\Users\stan\Desktop\Lund\LegoRobotRuzzle\Opencv_WebCa\NXT\Working_with_bluetooth - Copie.nxc"
0	184	2	#line 184 "C:\Users\stan\Desktop\Lund\LegoRobotRuzzle\Opencv_WebCa\NXT\Working_with_bluetooth - Copie.nxc"
0	185	2		start timeKeeping
0	184	4	#line 184 "C:\Users\stan\Desktop\Lund\LegoRobotRuzzle\Opencv_WebCa\NXT\Working_with_bluetooth - Copie.nxc"
0	184	4	#line 184 "C:\Users\stan\Desktop\Lund\LegoRobotRuzzle\Opencv_WebCa\NXT\Working_with_bluetooth - Copie.nxc"
0	185	4	#pragma macro 8
0	185	4		acquire __IOMWMutex
0	185	5		mov __IOMWBIArgs.ModuleID, __constVal131073
0	185	7		mov __IOMWBIArgs.Offset, __constVal96
0	185	9		flatten __IOMWFlattenBuf, __constVal10
0	185	12		strtoarr __IOMWBIArgs.Buffer, __IOMWFlattenBuf
0	185	15		syscall 79, __IOMWBIArgs
0	185	18		release __IOMWMutex
0	8685	19	#line 8685 "C:\Users\stan\Desktop\Lund\LegoRobotRuzzle\Opencv_WebCa\NXT\Working_with_bluetooth - Copie.nxc"
0	184	19	#line 184 "C:\Users\stan\Desktop\Lund\LegoRobotRuzzle\Opencv_WebCa\NXT\Working_with_bluetooth - Copie.nxc"
0	184	19	#line 184 "C:\Users\stan\Desktop\Lund\LegoRobotRuzzle\Opencv_WebCa\NXT\Working_with_bluetooth - Copie.nxc"
0	185	19	#line 185 "C:\Users\stan\Desktop\Lund\LegoRobotRuzzle\Opencv_WebCa\NXT\Working_with_bluetooth - Copie.nxc"
0	186	19	#pragma macro 8
0	186	19		acquire __IOMWMutex
0	186	20		mov __IOMWBIArgs.ModuleID, __constVal131073
0	186	22		mov __IOMWBIArgs.Offset, __constVal97
0	186	24		flatten __IOMWFlattenBuf, __constVal1
0	186	27		strtoarr __IOMWBIArgs.Buffer, __IOMWFlattenBuf
0	186	30		syscall 79, __IOMWBIArgs
0	186	33		release __IOMWMutex
0	8689	34	#line 8689 "C:\Users\stan\Desktop\Lund\LegoRobotRuzzle\Opencv_WebCa\NXT\Working_with_bluetooth - Copie.nxc"
0	185	34	#line 185 "C:\Users\stan\Desktop\Lund\LegoRobotRuzzle\Opencv_WebCa\NXT\Working_with_bluetooth - Copie.nxc"
0	185	34	#line 185 "C:\Users\stan\Desktop\Lund\LegoRobotRuzzle\Opencv_WebCa\NXT\Working_with_bluetooth - Copie.nxc"
0	186	34	#line 186 "C:\Users\stan\Desktop\Lund\LegoRobotRuzzle\Opencv_WebCa\NXT\Working_with_bluetooth - Copie.nxc"
0	187	34		set __PosRegSetMax_7qG2_output_7qG2_000_inline_main, 0
0	186	37	#line 186 "C:\Users\stan\Desktop\Lund\LegoRobotRuzzle\Opencv_WebCa\NXT\Working_with_bluetooth - Copie.nxc"
0	186	37	#line 186 "C:\Users\stan\Desktop\Lund\LegoRobotRuzzle\Opencv_WebCa\NXT\Working_with_bluetooth - Copie.nxc"
0	187	37		set __PosRegSetMax_7qG2_max_speed_7qG2_000_inline_main, 100
0	186	40	#line 186 "C:\Users\stan\Desktop\Lund\LegoRobotRuzzle\Opencv_WebCa\NXT\Working_with_bluetooth - Copie.nxc"
0	186	40	#line 186 "C:\Users\stan\Desktop\Lund\LegoRobotRuzzle\Opencv_WebCa\NXT\Working_with_bluetooth - Copie.nxc"
0	187	40		set __PosRegSetMax_7qG2_max_acceleration_7qG2_000_inline_main, 100
0	186	43	#line 186 "C:\Users\stan\Desktop\Lund\LegoRobotRuzzle\Opencv_WebCa\NXT\Working_with_bluetooth - Copie.nxc"
0	20954	43	#line 20954 "NXCDefs.h"
0	20955	43		mov __unsigned_stack_001PosRegSetMax_inline_main, __PosRegSetMax_7qG2_max_speed_7qG2_000_inline_main
0	20954	45	#line 20954 "NXCDefs.h"
0	20955	45	#line 20955 "NXCDefs.h"
0	20956	45		mov __unsigned_stack_002PosRegSetMax_inline_main, __PosRegSetMax_7qG2_max_acceleration_7qG2_000_inline_main
0	20955	47	#line 20955 "NXCDefs.h"
0	20955	47	#line 20955 "NXCDefs.h"
0	20956	47		set __D0PosRegSetMax_inline_main, 16
0	20956	50	#line 20956 "NXCDefs.h"
0	20956	50	#line 20956 "NXCDefs.h"
0	20957	50		setout __PosRegSetMax_7qG2_output_7qG2_000_inline_main, 16, __unsigned_stack_001PosRegSetMax_inline_main, 17, __unsigned_stack_002PosRegSetMax_inline_main, 0, __D0PosRegSetMax_inline_main
0	20956	59	#line 20956 "NXCDefs.h"
0	20956	59	#line 20956 "NXCDefs.h"
0	20956	59	#line 20956 "NXCDefs.h"
0	20956	59	#line 20956 "NXCDefs.h"
0	20956	59	#line 20956 "NXCDefs.h"
0	20956	59	#line 20956 "NXCDefs.h"
0	20956	59	#line 20956 "NXCDefs.h"
0	20957	59		set __Wait_7qG2_ms_7qG2_000_inline_PosRegSetMax_inline_main, 2
0	20956	62	#line 20956 "NXCDefs.h"
0	8551	62	#line 8551 "NXCDefs.h"
0	8552	62		waitv __Wait_7qG2_ms_7qG2_000_inline_PosRegSetMax_inline_main
0	8551	64	#line 8551 "NXCDefs.h"
0	20957	64	#line 20957 "NXCDefs.h"
0	187	64	#line 187 "C:\Users\stan\Desktop\Lund\LegoRobotRuzzle\Opencv_WebCa\NXT\Working_with_bluetooth - Copie.nxc"
0	187	64	#line 187 "C:\Users\stan\Desktop\Lund\LegoRobotRuzzle\Opencv_WebCa\NXT\Working_with_bluetooth - Copie.nxc"
0	188	64		set __PosRegSetMax_7qG2_output_7qG2_000_inline_main, 1
0	187	67	#line 187 "C:\Users\stan\Desktop\Lund\LegoRobotRuzzle\Opencv_WebCa\NXT\Working_with_bluetooth - Copie.nxc"
0	187	67	#line 187 "C:\Users\stan\Desktop\Lund\LegoRobotRuzzle\Opencv_WebCa\NXT\Working_with_bluetooth - Copie.nxc"
0	188	67		set __PosRegSetMax_7qG2_max_speed_7qG2_000_inline_main, 100
0	187	70	#line 187 "C:\Users\stan\Desktop\Lund\LegoRobotRuzzle\Opencv_WebCa\NXT\Working_with_bluetooth - Copie.nxc"
0	187	70	#line 187 "C:\Users\stan\Desktop\Lund\LegoRobotRuzzle\Opencv_WebCa\NXT\Working_with_bluetooth - Copie.nxc"
0	188	70		set __PosRegSetMax_7qG2_max_acceleration_7qG2_000_inline_main, 100
0	187	73	#line 187 "C:\Users\stan\Desktop\Lund\LegoRobotRuzzle\Opencv_WebCa\NXT\Working_with_bluetooth - Copie.nxc"
0	20954	73	#line 20954 "NXCDefs.h"
0	20955	73		mov __unsigned_stack_001PosRegSetMax_inline_main, __PosRegSetMax_7qG2_max_speed_7qG2_000_inline_main
0	20954	75	#line 20954 "NXCDefs.h"
0	20955	75	#line 20955 "NXCDefs.h"
0	20956	75		mov __unsigned_stack_002PosRegSetMax_inline_main, __PosRegSetMax_7qG2_max_acceleration_7qG2_000_inline_main
0	20955	77	#line 20955 "NXCDefs.h"
0	20955	77	#line 20955 "NXCDefs.h"
0	20956	77		set __D0PosRegSetMax_inline_main, 16
0	20956	80	#line 20956 "NXCDefs.h"
0	20956	80	#line 20956 "NXCDefs.h"
0	20957	80		setout __PosRegSetMax_7qG2_output_7qG2_000_inline_main, 16, __unsigned_stack_001PosRegSetMax_inline_main, 17, __unsigned_stack_002PosRegSetMax_inline_main, 0, __D0PosRegSetMax_inline_main
0	20956	89	#line 20956 "NXCDefs.h"
0	20956	89	#line 20956 "NXCDefs.h"
0	20956	89	#line 20956 "NXCDefs.h"
0	20956	89	#line 20956 "NXCDefs.h"
0	20956	89	#line 20956 "NXCDefs.h"
0	20956	89	#line 20956 "NXCDefs.h"
0	20956	89	#line 20956 "NXCDefs.h"
0	20957	89		set __Wait_7qG2_ms_7qG2_000_inline_PosRegSetMax_inline_main, 2
0	20956	92	#line 20956 "NXCDefs.h"
0	8551	92	#line 8551 "NXCDefs.h"
0	8552	92		waitv __Wait_7qG2_ms_7qG2_000_inline_PosRegSetMax_inline_main
0	8551	94	#line 8551 "NXCDefs.h"
0	20957	94	#line 20957 "NXCDefs.h"
0	188	94	#line 188 "C:\Users\stan\Desktop\Lund\LegoRobotRuzzle\Opencv_WebCa\NXT\Working_with_bluetooth - Copie.nxc"
0	188	94	#line 188 "C:\Users\stan\Desktop\Lund\LegoRobotRuzzle\Opencv_WebCa\NXT\Working_with_bluetooth - Copie.nxc"
0	189	94		set __PosRegSetMax_7qG2_output_7qG2_000_inline_main, 2
0	188	97	#line 188 "C:\Users\stan\Desktop\Lund\LegoRobotRuzzle\Opencv_WebCa\NXT\Working_with_bluetooth - Copie.nxc"
0	188	97	#line 188 "C:\Users\stan\Desktop\Lund\LegoRobotRuzzle\Opencv_WebCa\NXT\Working_with_bluetooth - Copie.nxc"
0	189	97		set __PosRegSetMax_7qG2_max_speed_7qG2_000_inline_main, 100
0	188	100	#line 188 "C:\Users\stan\Desktop\Lund\LegoRobotRuzzle\Opencv_WebCa\NXT\Working_with_bluetooth - Copie.nxc"
0	188	100	#line 188 "C:\Users\stan\Desktop\Lund\LegoRobotRuzzle\Opencv_WebCa\NXT\Working_with_bluetooth - Copie.nxc"
0	189	100		set __PosRegSetMax_7qG2_max_acceleration_7qG2_000_inline_main, 100
0	188	103	#line 188 "C:\Users\stan\Desktop\Lund\LegoRobotRuzzle\Opencv_WebCa\NXT\Working_with_bluetooth - Copie.nxc"
0	20954	103	#line 20954 "NXCDefs.h"
0	20955	103		mov __unsigned_stack_001PosRegSetMax_inline_main, __PosRegSetMax_7qG2_max_speed_7qG2_000_inline_main
0	20954	105	#line 20954 "NXCDefs.h"
0	20955	105	#line 20955 "NXCDefs.h"
0	20956	105		mov __unsigned_stack_002PosRegSetMax_inline_main, __PosRegSetMax_7qG2_max_acceleration_7qG2_000_inline_main
0	20955	107	#line 20955 "NXCDefs.h"
0	20955	107	#line 20955 "NXCDefs.h"
0	20956	107		set __D0PosRegSetMax_inline_main, 16
0	20956	110	#line 20956 "NXCDefs.h"
0	20956	110	#line 20956 "NXCDefs.h"
0	20957	110		setout __PosRegSetMax_7qG2_output_7qG2_000_inline_main, 16, __unsigned_stack_001PosRegSetMax_inline_main, 17, __unsigned_stack_002PosRegSetMax_inline_main, 0, __D0PosRegSetMax_inline_main
0	20956	119	#line 20956 "NXCDefs.h"
0	20956	119	#line 20956 "NXCDefs.h"
0	20956	119	#line 20956 "NXCDefs.h"
0	20956	119	#line 20956 "NXCDefs.h"
0	20956	119	#line 20956 "NXCDefs.h"
0	20956	119	#line 20956 "NXCDefs.h"
0	20956	119	#line 20956 "NXCDefs.h"
0	20957	119		set __Wait_7qG2_ms_7qG2_000_inline_PosRegSetMax_inline_main, 2
0	20956	122	#line 20956 "NXCDefs.h"
0	8551	122	#line 8551 "NXCDefs.h"
0	8552	122		waitv __Wait_7qG2_ms_7qG2_000_inline_PosRegSetMax_inline_main
0	8551	124	#line 8551 "NXCDefs.h"
0	20957	124	#line 20957 "NXCDefs.h"
0	190	124	#line 190 "C:\Users\stan\Desktop\Lund\LegoRobotRuzzle\Opencv_WebCa\NXT\Working_with_bluetooth - Copie.nxc"
0	190	124	#line 190 "C:\Users\stan\Desktop\Lund\LegoRobotRuzzle\Opencv_WebCa\NXT\Working_with_bluetooth - Copie.nxc"
0	191	124		set __PosRegEnable_7qG2_output_7qG2_000_inline_main, 0
0	190	127	#line 190 "C:\Users\stan\Desktop\Lund\LegoRobotRuzzle\Opencv_WebCa\NXT\Working_with_bluetooth - Copie.nxc"
0	190	127	#line 190 "C:\Users\stan\Desktop\Lund\LegoRobotRuzzle\Opencv_WebCa\NXT\Working_with_bluetooth - Copie.nxc"
0	191	127		set __PosRegEnable_7qG2_p_7qG2_000_inline_main, 96
0	190	130	#line 190 "C:\Users\stan\Desktop\Lund\LegoRobotRuzzle\Opencv_WebCa\NXT\Working_with_bluetooth - Copie.nxc"
0	190	130	#line 190 "C:\Users\stan\Desktop\Lund\LegoRobotRuzzle\Opencv_WebCa\NXT\Working_with_bluetooth - Copie.nxc"
0	191	130		set __PosRegEnable_7qG2_i_7qG2_000_inline_main, 32
0	190	133	#line 190 "C:\Users\stan\Desktop\Lund\LegoRobotRuzzle\Opencv_WebCa\NXT\Working_with_bluetooth - Copie.nxc"
0	190	133	#line 190 "C:\Users\stan\Desktop\Lund\LegoRobotRuzzle\Opencv_WebCa\NXT\Working_with_bluetooth - Copie.nxc"
0	191	133		set __PosRegEnable_7qG2_d_7qG2_000_inline_main, 32
0	190	136	#line 190 "C:\Users\stan\Desktop\Lund\LegoRobotRuzzle\Opencv_WebCa\NXT\Working_with_bluetooth - Copie.nxc"
0	20889	136	#line 20889 "NXCDefs.h"
0	20890	136		set __signed_stack_001PosRegEnable_inline_main, 7
0	20889	139	#line 20889 "NXCDefs.h"
0	20890	139	#line 20890 "NXCDefs.h"
0	20891	139		set __signed_stack_002PosRegEnable_inline_main, 4
0	20890	142	#line 20890 "NXCDefs.h"
0	20891	142	#line 20891 "NXCDefs.h"
0	20892	142		set __signed_stack_003PosRegEnable_inline_main, 32
0	20891	145	#line 20891 "NXCDefs.h"
0	20892	145	#line 20892 "NXCDefs.h"
0	20893	145		set __signed_stack_004PosRegEnable_inline_main, 0
0	20892	148	#line 20892 "NXCDefs.h"
0	20893	148	#line 20893 "NXCDefs.h"
0	20894	148		set __signed_stack_005PosRegEnable_inline_main, 0
0	20893	151	#line 20893 "NXCDefs.h"
0	20893	151	#line 20893 "NXCDefs.h"
0	20894	151		mov __unsigned_stack_006PosRegEnable_inline_main, __PosRegEnable_7qG2_p_7qG2_000_inline_main
0	20893	153	#line 20893 "NXCDefs.h"
0	20893	153	#line 20893 "NXCDefs.h"
0	20894	153		mov __unsigned_stack_007PosRegEnable_inline_main, __PosRegEnable_7qG2_i_7qG2_000_inline_main
0	20893	155	#line 20893 "NXCDefs.h"
0	20894	155	#line 20894 "NXCDefs.h"
0	20895	155		mov __unsigned_stack_008PosRegEnable_inline_main, __PosRegEnable_7qG2_d_7qG2_000_inline_main
0	20894	157	#line 20894 "NXCDefs.h"
0	20894	157	#line 20894 "NXCDefs.h"
0	20895	157		set __D0PosRegEnable_inline_main, 27
0	20895	160	#line 20895 "NXCDefs.h"
0	20895	160	#line 20895 "NXCDefs.h"
0	20896	160		setout __PosRegEnable_7qG2_output_7qG2_000_inline_main, 1, __signed_stack_001PosRegEnable_inline_main, 8, __signed_stack_002PosRegEnable_inline_main, 6, __signed_stack_003PosRegEnable_inline_main, 2, __signed_stack_004PosRegEnable_inline_main, 7, __signed_stack_005PosRegEnable_inline_main, 10, __unsigned_stack_006PosRegEnable_inline_main, 11, __unsigned_stack_007PosRegEnable_inline_main, 12, __unsigned_stack_008PosRegEnable_inline_main, 0, __D0PosRegEnable_inline_main
0	20895	181	#line 20895 "NXCDefs.h"
0	20895	181	#line 20895 "NXCDefs.h"
0	20895	181	#line 20895 "NXCDefs.h"
0	20895	181	#line 20895 "NXCDefs.h"
0	20895	181	#line 20895 "NXCDefs.h"
0	20895	181	#line 20895 "NXCDefs.h"
0	20895	181	#line 20895 "NXCDefs.h"
0	20896	181		set __Wait_7qG2_ms_7qG2_000_inline_PosRegEnable_inline_main, 2
0	20895	184	#line 20895 "NXCDefs.h"
0	8551	184	#line 8551 "NXCDefs.h"
0	8552	184		waitv __Wait_7qG2_ms_7qG2_000_inline_PosRegEnable_inline_main
0	8551	186	#line 8551 "NXCDefs.h"
0	20896	186	#line 20896 "NXCDefs.h"
0	191	186	#line 191 "C:\Users\stan\Desktop\Lund\LegoRobotRuzzle\Opencv_WebCa\NXT\Working_with_bluetooth - Copie.nxc"
0	191	186	#line 191 "C:\Users\stan\Desktop\Lund\LegoRobotRuzzle\Opencv_WebCa\NXT\Working_with_bluetooth - Copie.nxc"
0	192	186		set __PosRegEnable_7qG2_output_7qG2_000_inline_main, 1
0	191	189	#line 191 "C:\Users\stan\Desktop\Lund\LegoRobotRuzzle\Opencv_WebCa\NXT\Working_with_bluetooth - Copie.nxc"
0	192	189	#line 192 "C:\Users\stan\Desktop\Lund\LegoRobotRuzzle\Opencv_WebCa\NXT\Working_with_bluetooth - Copie.nxc"
0	193	189		mov __PosRegEnable_7qG2_p_7qG2_000_inline_main, __constVal96
0	192	191	#line 192 "C:\Users\stan\Desktop\Lund\LegoRobotRuzzle\Opencv_WebCa\NXT\Working_with_bluetooth - Copie.nxc"
0	193	191		mov __PosRegEnable_7qG2_i_7qG2_000_inline_main, __constVal32
0	192	193	#line 192 "C:\Users\stan\Desktop\Lund\LegoRobotRuzzle\Opencv_WebCa\NXT\Working_with_bluetooth - Copie.nxc"
0	193	193		mov __PosRegEnable_7qG2_d_7qG2_000_inline_main, __constVal32
0	20889	195	#line 20889 "NXCDefs.h"
0	20890	195		set __signed_stack_001PosRegEnable_inline_main, 7
0	20889	198	#line 20889 "NXCDefs.h"
0	20890	198	#line 20890 "NXCDefs.h"
0	20891	198		set __signed_stack_002PosRegEnable_inline_main, 4
0	20890	201	#line 20890 "NXCDefs.h"
0	20891	201	#line 20891 "NXCDefs.h"
0	20892	201		set __signed_stack_003PosRegEnable_inline_main, 32
0	20891	204	#line 20891 "NXCDefs.h"
0	20892	204	#line 20892 "NXCDefs.h"
0	20893	204		set __signed_stack_004PosRegEnable_inline_main, 0
0	20892	207	#line 20892 "NXCDefs.h"
0	20893	207	#line 20893 "NXCDefs.h"
0	20894	207		set __signed_stack_005PosRegEnable_inline_main, 0
0	20893	210	#line 20893 "NXCDefs.h"
0	20893	210	#line 20893 "NXCDefs.h"
0	20894	210		mov __unsigned_stack_006PosRegEnable_inline_main, __PosRegEnable_7qG2_p_7qG2_000_inline_main
0	20893	212	#line 20893 "NXCDefs.h"
0	20893	212	#line 20893 "NXCDefs.h"
0	20894	212		mov __unsigned_stack_007PosRegEnable_inline_main, __PosRegEnable_7qG2_i_7qG2_000_inline_main
0	20893	214	#line 20893 "NXCDefs.h"
0	20894	214	#line 20894 "NXCDefs.h"
0	20895	214		mov __unsigned_stack_008PosRegEnable_inline_main, __PosRegEnable_7qG2_d_7qG2_000_inline_main
0	20894	216	#line 20894 "NXCDefs.h"
0	20894	216	#line 20894 "NXCDefs.h"
0	20895	216		set __D0PosRegEnable_inline_main, 27
0	20895	219	#line 20895 "NXCDefs.h"
0	20895	219	#line 20895 "NXCDefs.h"
0	20896	219		setout __PosRegEnable_7qG2_output_7qG2_000_inline_main, 1, __signed_stack_001PosRegEnable_inline_main, 8, __signed_stack_002PosRegEnable_inline_main, 6, __signed_stack_003PosRegEnable_inline_main, 2, __signed_stack_004PosRegEnable_inline_main, 7, __signed_stack_005PosRegEnable_inline_main, 10, __unsigned_stack_006PosRegEnable_inline_main, 11, __unsigned_stack_007PosRegEnable_inline_main, 12, __unsigned_stack_008PosRegEnable_inline_main, 0, __D0PosRegEnable_inline_main
0	20895	240	#line 20895 "NXCDefs.h"
0	20895	240	#line 20895 "NXCDefs.h"
0	20895	240	#line 20895 "NXCDefs.h"
0	20895	240	#line 20895 "NXCDefs.h"
0	20895	240	#line 20895 "NXCDefs.h"
0	20895	240	#line 20895 "NXCDefs.h"
0	20895	240	#line 20895 "NXCDefs.h"
0	20896	240		set __Wait_7qG2_ms_7qG2_000_inline_PosRegEnable_inline_main, 2
0	20895	243	#line 20895 "NXCDefs.h"
0	8551	243	#line 8551 "NXCDefs.h"
0	8552	243		waitv __Wait_7qG2_ms_7qG2_000_inline_PosRegEnable_inline_main
0	8551	245	#line 8551 "NXCDefs.h"
0	20896	245	#line 20896 "NXCDefs.h"
0	192	245	#line 192 "C:\Users\stan\Desktop\Lund\LegoRobotRuzzle\Opencv_WebCa\NXT\Working_with_bluetooth - Copie.nxc"
0	192	245	#line 192 "C:\Users\stan\Desktop\Lund\LegoRobotRuzzle\Opencv_WebCa\NXT\Working_with_bluetooth - Copie.nxc"
0	193	245		set __PosRegEnable_7qG2_output_7qG2_000_inline_main, 2
0	192	248	#line 192 "C:\Users\stan\Desktop\Lund\LegoRobotRuzzle\Opencv_WebCa\NXT\Working_with_bluetooth - Copie.nxc"
0	192	248	#line 192 "C:\Users\stan\Desktop\Lund\LegoRobotRuzzle\Opencv_WebCa\NXT\Working_with_bluetooth - Copie.nxc"
0	193	248		set __PosRegEnable_7qG2_p_7qG2_000_inline_main, 96
0	192	251	#line 192 "C:\Users\stan\Desktop\Lund\LegoRobotRuzzle\Opencv_WebCa\NXT\Working_with_bluetooth - Copie.nxc"
0	192	251	#line 192 "C:\Users\stan\Desktop\Lund\LegoRobotRuzzle\Opencv_WebCa\NXT\Working_with_bluetooth - Copie.nxc"
0	193	251		set __PosRegEnable_7qG2_i_7qG2_000_inline_main, 32
0	192	254	#line 192 "C:\Users\stan\Desktop\Lund\LegoRobotRuzzle\Opencv_WebCa\NXT\Working_with_bluetooth - Copie.nxc"
0	192	254	#line 192 "C:\Users\stan\Desktop\Lund\LegoRobotRuzzle\Opencv_WebCa\NXT\Working_with_bluetooth - Copie.nxc"
0	193	254		set __PosRegEnable_7qG2_d_7qG2_000_inline_main, 32
0	192	257	#line 192 "C:\Users\stan\Desktop\Lund\LegoRobotRuzzle\Opencv_WebCa\NXT\Working_with_bluetooth - Copie.nxc"
0	20889	257	#line 20889 "NXCDefs.h"
0	20890	257		set __signed_stack_001PosRegEnable_inline_main, 7
0	20889	260	#line 20889 "NXCDefs.h"
0	20890	260	#line 20890 "NXCDefs.h"
0	20891	260		set __signed_stack_002PosRegEnable_inline_main, 4
0	20890	263	#line 20890 "NXCDefs.h"
0	20891	263	#line 20891 "NXCDefs.h"
0	20892	263		set __signed_stack_003PosRegEnable_inline_main, 32
0	20891	266	#line 20891 "NXCDefs.h"
0	20892	266	#line 20892 "NXCDefs.h"
0	20893	266		set __signed_stack_004PosRegEnable_inline_main, 0
0	20892	269	#line 20892 "NXCDefs.h"
0	20893	269	#line 20893 "NXCDefs.h"
0	20894	269		set __signed_stack_005PosRegEnable_inline_main, 0
0	20893	272	#line 20893 "NXCDefs.h"
0	20893	272	#line 20893 "NXCDefs.h"
0	20894	272		mov __unsigned_stack_006PosRegEnable_inline_main, __PosRegEnable_7qG2_p_7qG2_000_inline_main
0	20893	274	#line 20893 "NXCDefs.h"
0	20893	274	#line 20893 "NXCDefs.h"
0	20894	274		mov __unsigned_stack_007PosRegEnable_inline_main, __PosRegEnable_7qG2_i_7qG2_000_inline_main
0	20893	276	#line 20893 "NXCDefs.h"
0	20894	276	#line 20894 "NXCDefs.h"
0	20895	276		mov __unsigned_stack_008PosRegEnable_inline_main, __PosRegEnable_7qG2_d_7qG2_000_inline_main
0	20894	278	#line 20894 "NXCDefs.h"
0	20894	278	#line 20894 "NXCDefs.h"
0	20895	278		set __D0PosRegEnable_inline_main, 27
0	20895	281	#line 20895 "NXCDefs.h"
0	20895	281	#line 20895 "NXCDefs.h"
0	20896	281		setout __PosRegEnable_7qG2_output_7qG2_000_inline_main, 1, __signed_stack_001PosRegEnable_inline_main, 8, __signed_stack_002PosRegEnable_inline_main, 6, __signed_stack_003PosRegEnable_inline_main, 2, __signed_stack_004PosRegEnable_inline_main, 7, __signed_stack_005PosRegEnable_inline_main, 10, __unsigned_stack_006PosRegEnable_inline_main, 11, __unsigned_stack_007PosRegEnable_inline_main, 12, __unsigned_stack_008PosRegEnable_inline_main, 0, __D0PosRegEnable_inline_main
0	20895	302	#line 20895 "NXCDefs.h"
0	20895	302	#line 20895 "NXCDefs.h"
0	20895	302	#line 20895 "NXCDefs.h"
0	20895	302	#line 20895 "NXCDefs.h"
0	20895	302	#line 20895 "NXCDefs.h"
0	20895	302	#line 20895 "NXCDefs.h"
0	20895	302	#line 20895 "NXCDefs.h"
0	20896	302		set __Wait_7qG2_ms_7qG2_000_inline_PosRegEnable_inline_main, 2
0	20895	305	#line 20895 "NXCDefs.h"
0	8551	305	#line 8551 "NXCDefs.h"
0	8552	305		waitv __Wait_7qG2_ms_7qG2_000_inline_PosRegEnable_inline_main
0	8551	307	#line 8551 "NXCDefs.h"
0	20896	307	#line 20896 "NXCDefs.h"
0	196	307	#line 196 "C:\Users\stan\Desktop\Lund\LegoRobotRuzzle\Opencv_WebCa\NXT\Working_with_bluetooth - Copie.nxc"
0	196	307	#line 196 "C:\Users\stan\Desktop\Lund\LegoRobotRuzzle\Opencv_WebCa\NXT\Working_with_bluetooth - Copie.nxc"
0	197	307		set __rotateMotorToDegree_7qG2_motor_7qG2_000, 1
0	196	310	#line 196 "C:\Users\stan\Desktop\Lund\LegoRobotRuzzle\Opencv_WebCa\NXT\Working_with_bluetooth - Copie.nxc"
0	196	310	#line 196 "C:\Users\stan\Desktop\Lund\LegoRobotRuzzle\Opencv_WebCa\NXT\Working_with_bluetooth - Copie.nxc"
0	197	310		mov __rotateMotorToDegree_7qG2_degree_7qG2_000, __constValNeg300
0	196	312	#line 196 "C:\Users\stan\Desktop\Lund\LegoRobotRuzzle\Opencv_WebCa\NXT\Working_with_bluetooth - Copie.nxc"
0	197	312	#line 197 "C:\Users\stan\Desktop\Lund\LegoRobotRuzzle\Opencv_WebCa\NXT\Working_with_bluetooth - Copie.nxc"
0	198	312		subcall rotateMotorToDegree, __rotateMotorToDegree_return
0	197	314	#line 197 "C:\Users\stan\Desktop\Lund\LegoRobotRuzzle\Opencv_WebCa\NXT\Working_with_bluetooth - Copie.nxc"
0	197	314	#line 197 "C:\Users\stan\Desktop\Lund\LegoRobotRuzzle\Opencv_WebCa\NXT\Working_with_bluetooth - Copie.nxc"
0	198	314		set __D0main, 1
0	198	317	#line 198 "C:\Users\stan\Desktop\Lund\LegoRobotRuzzle\Opencv_WebCa\NXT\Working_with_bluetooth - Copie.nxc"
0	199	317		tst 5, __D0main, __D0main
0	198	320	#line 198 "C:\Users\stan\Desktop\Lund\LegoRobotRuzzle\Opencv_WebCa\NXT\Working_with_bluetooth - Copie.nxc"
0	199	320		brtst 4, __ASM_Label_900, __D0main
0	199	323	#line 199 "C:\Users\stan\Desktop\Lund\LegoRobotRuzzle\Opencv_WebCa\NXT\Working_with_bluetooth - Copie.nxc"
0	200	323		subcall checkMessage, __checkMessage_return
0	199	325	#line 199 "C:\Users\stan\Desktop\Lund\LegoRobotRuzzle\Opencv_WebCa\NXT\Working_with_bluetooth - Copie.nxc"
0	200	325	#line 200 "C:\Users\stan\Desktop\Lund\LegoRobotRuzzle\Opencv_WebCa\NXT\Working_with_bluetooth - Copie.nxc"
0	201	325		set __main_7qG2_X_7qG2_001, 0
0	200	328	#line 200 "C:\Users\stan\Desktop\Lund\LegoRobotRuzzle\Opencv_WebCa\NXT\Working_with_bluetooth - Copie.nxc"
0	201	328	#line 201 "C:\Users\stan\Desktop\Lund\LegoRobotRuzzle\Opencv_WebCa\NXT\Working_with_bluetooth - Copie.nxc"
0	202	328		set __main_7qG2_Y_7qG2_001, 0
0	201	331	#line 201 "C:\Users\stan\Desktop\Lund\LegoRobotRuzzle\Opencv_WebCa\NXT\Working_with_bluetooth - Copie.nxc"
0	201	331	#line 201 "C:\Users\stan\Desktop\Lund\LegoRobotRuzzle\Opencv_WebCa\NXT\Working_with_bluetooth - Copie.nxc"
0	202	331		mov __DU0main, newRoute
0	202	333	#line 202 "C:\Users\stan\Desktop\Lund\LegoRobotRuzzle\Opencv_WebCa\NXT\Working_with_bluetooth - Copie.nxc"
0	203	333		tst 5, __D0main, __DU0main
0	202	336	#line 202 "C:\Users\stan\Desktop\Lund\LegoRobotRuzzle\Opencv_WebCa\NXT\Working_with_bluetooth - Copie.nxc"
0	203	336		brtst 4, __ASM_Label_909, __D0main
0	203	339	#line 203 "C:\Users\stan\Desktop\Lund\LegoRobotRuzzle\Opencv_WebCa\NXT\Working_with_bluetooth - Copie.nxc"
0	204	339		set newRoute, 0
0	203	342	#line 203 "C:\Users\stan\Desktop\Lund\LegoRobotRuzzle\Opencv_WebCa\NXT\Working_with_bluetooth - Copie.nxc"
0	203	342	#line 203 "C:\Users\stan\Desktop\Lund\LegoRobotRuzzle\Opencv_WebCa\NXT\Working_with_bluetooth - Copie.nxc"
0	203	342	#line 203 "C:\Users\stan\Desktop\Lund\LegoRobotRuzzle\Opencv_WebCa\NXT\Working_with_bluetooth - Copie.nxc"
0	204	342		set __main_7qG2_i_7qG2_003, 0
0	203	345	#line 203 "C:\Users\stan\Desktop\Lund\LegoRobotRuzzle\Opencv_WebCa\NXT\Working_with_bluetooth - Copie.nxc"
0	203	345	#line 203 "C:\Users\stan\Desktop\Lund\LegoRobotRuzzle\Opencv_WebCa\NXT\Working_with_bluetooth - Copie.nxc"
0	204	345		mov __signed_stack_001main, __main_7qG2_i_7qG2_003
0	203	347	#line 203 "C:\Users\stan\Desktop\Lund\LegoRobotRuzzle\Opencv_WebCa\NXT\Working_with_bluetooth - Copie.nxc"
0	203	347	#line 203 "C:\Users\stan\Desktop\Lund\LegoRobotRuzzle\Opencv_WebCa\NXT\Working_with_bluetooth - Copie.nxc"
0	204	347		mov __D0main, lengthAllRoutes
0	203	349	#line 203 "C:\Users\stan\Desktop\Lund\LegoRobotRuzzle\Opencv_WebCa\NXT\Working_with_bluetooth - Copie.nxc"
0	204	349		cmp 0, __D0main, __signed_stack_001main, __D0main
0	203	353	#line 203 "C:\Users\stan\Desktop\Lund\LegoRobotRuzzle\Opencv_WebCa\NXT\Working_with_bluetooth - Copie.nxc"
0	204	353		brtst 4, __ASM_Label_913, __D0main
0	203	356	#line 203 "C:\Users\stan\Desktop\Lund\LegoRobotRuzzle\Opencv_WebCa\NXT\Working_with_bluetooth - Copie.nxc"
0	204	356		jmp __ASM_Label_914
0	203	358	#line 203 "C:\Users\stan\Desktop\Lund\LegoRobotRuzzle\Opencv_WebCa\NXT\Working_with_bluetooth - Copie.nxc"
0	204	358		add __main_7qG2_i_7qG2_003, __main_7qG2_i_7qG2_003, __constVal1
0	204	362	#line 204 "C:\Users\stan\Desktop\Lund\LegoRobotRuzzle\Opencv_WebCa\NXT\Working_with_bluetooth - Copie.nxc"
0	205	362		jmp __ASM_Label_912
0	204	364	#line 204 "C:\Users\stan\Desktop\Lund\LegoRobotRuzzle\Opencv_WebCa\NXT\Working_with_bluetooth - Copie.nxc"
0	205	364		mov __signed_stack_001main, __main_7qG2_i_7qG2_003
0	204	366	#line 204 "C:\Users\stan\Desktop\Lund\LegoRobotRuzzle\Opencv_WebCa\NXT\Working_with_bluetooth - Copie.nxc"
0	204	366	#line 204 "C:\Users\stan\Desktop\Lund\LegoRobotRuzzle\Opencv_WebCa\NXT\Working_with_bluetooth - Copie.nxc"
0	205	366		index __signed_stack_001main, moves, __signed_stack_001main
0	204	370	#line 204 "C:\Users\stan\Desktop\Lund\LegoRobotRuzzle\Opencv_WebCa\NXT\Working_with_bluetooth - Copie.nxc"
0	204	370	#line 204 "C:\Users\stan\Desktop\Lund\LegoRobotRuzzle\Opencv_WebCa\NXT\Working_with_bluetooth - Copie.nxc"
0	204	370	#line 204 "C:\Users\stan\Desktop\Lund\LegoRobotRuzzle\Opencv_WebCa\NXT\Working_with_bluetooth - Copie.nxc"
0	205	370		set __D0main, 4
0	204	373	#line 204 "C:\Users\stan\Desktop\Lund\LegoRobotRuzzle\Opencv_WebCa\NXT\Working_with_bluetooth - Copie.nxc"
0	205	373		cmp 4, __D0main, __signed_stack_001main, __D0main
0	205	377	#line 205 "C:\Users\stan\Desktop\Lund\LegoRobotRuzzle\Opencv_WebCa\NXT\Working_with_bluetooth - Copie.nxc"
0	206	377		brtst 4, __ASM_Label_924, __D0main
0	205	380	#line 205 "C:\Users\stan\Desktop\Lund\LegoRobotRuzzle\Opencv_WebCa\NXT\Working_with_bluetooth - Copie.nxc"
0	206	380		set __rotateMotorToDegree_7qG2_motor_7qG2_000, 1
0	205	383	#line 205 "C:\Users\stan\Desktop\Lund\LegoRobotRuzzle\Opencv_WebCa\NXT\Working_with_bluetooth - Copie.nxc"
0	205	383	#line 205 "C:\Users\stan\Desktop\Lund\LegoRobotRuzzle\Opencv_WebCa\NXT\Working_with_bluetooth - Copie.nxc"
0	206	383		set __rotateMotorToDegree_7qG2_degree_7qG2_000, 0
0	205	386	#line 205 "C:\Users\stan\Desktop\Lund\LegoRobotRuzzle\Opencv_WebCa\NXT\Working_with_bluetooth - Copie.nxc"
0	206	386	#line 206 "C:\Users\stan\Desktop\Lund\LegoRobotRuzzle\Opencv_WebCa\NXT\Working_with_bluetooth - Copie.nxc"
0	207	386		subcall rotateMotorToDegree, __rotateMotorToDegree_return
0	206	388	#line 206 "C:\Users\stan\Desktop\Lund\LegoRobotRuzzle\Opencv_WebCa\NXT\Working_with_bluetooth - Copie.nxc"
0	206	388	#line 206 "C:\Users\stan\Desktop\Lund\LegoRobotRuzzle\Opencv_WebCa\NXT\Working_with_bluetooth - Copie.nxc"
0	207	388		jmp __ASM_Label_929
0	206	390	#line 206 "C:\Users\stan\Desktop\Lund\LegoRobotRuzzle\Opencv_WebCa\NXT\Working_with_bluetooth - Copie.nxc"
0	207	390		mov __signed_stack_001main, __main_7qG2_i_7qG2_003
0	206	392	#line 206 "C:\Users\stan\Desktop\Lund\LegoRobotRuzzle\Opencv_WebCa\NXT\Working_with_bluetooth - Copie.nxc"
0	206	392	#line 206 "C:\Users\stan\Desktop\Lund\LegoRobotRuzzle\Opencv_WebCa\NXT\Working_with_bluetooth - Copie.nxc"
0	207	392		index __signed_stack_001main, moves, __signed_stack_001main
0	206	396	#line 206 "C:\Users\stan\Desktop\Lund\LegoRobotRuzzle\Opencv_WebCa\NXT\Working_with_bluetooth - Copie.nxc"
0	206	396	#line 206 "C:\Users\stan\Desktop\Lund\LegoRobotRuzzle\Opencv_WebCa\NXT\Working_with_bluetooth - Copie.nxc"
0	206	396	#line 206 "C:\Users\stan\Desktop\Lund\LegoRobotRuzzle\Opencv_WebCa\NXT\Working_with_bluetooth - Copie.nxc"
0	207	396		set __D0main, 5
0	206	399	#line 206 "C:\Users\stan\Desktop\Lund\LegoRobotRuzzle\Opencv_WebCa\NXT\Working_with_bluetooth - Copie.nxc"
0	207	399		cmp 4, __D0main, __signed_stack_001main, __D0main
0	207	403	#line 207 "C:\Users\stan\Desktop\Lund\LegoRobotRuzzle\Opencv_WebCa\NXT\Working_with_bluetooth - Copie.nxc"
0	208	403		brtst 4, __ASM_Label_934, __D0main
0	207	406	#line 207 "C:\Users\stan\Desktop\Lund\LegoRobotRuzzle\Opencv_WebCa\NXT\Working_with_bluetooth - Copie.nxc"
0	208	406		set __rotateMotorToDegree_7qG2_motor_7qG2_000, 1
0	207	409	#line 207 "C:\Users\stan\Desktop\Lund\LegoRobotRuzzle\Opencv_WebCa\NXT\Working_with_bluetooth - Copie.nxc"
0	207	409	#line 207 "C:\Users\stan\Desktop\Lund\LegoRobotRuzzle\Opencv_WebCa\NXT\Working_with_bluetooth - Copie.nxc"
0	208	409		mov __rotateMotorToDegree_7qG2_degree_7qG2_000, __constValNeg100
0	207	411	#line 207 "C:\Users\stan\Desktop\Lund\LegoRobotRuzzle\Opencv_WebCa\NXT\Working_with_bluetooth - Copie.nxc"
0	208	411	#line 208 "C:\Users\stan\Desktop\Lund\LegoRobotRuzzle\Opencv_WebCa\NXT\Working_with_bluetooth - Copie.nxc"
0	209	411		subcall rotateMotorToDegree, __rotateMotorToDegree_return
0	208	413	#line 208 "C:\Users\stan\Desktop\Lund\LegoRobotRuzzle\Opencv_WebCa\NXT\Working_with_bluetooth - Copie.nxc"
0	209	413	#line 209 "C:\Users\stan\Desktop\Lund\LegoRobotRuzzle\Opencv_WebCa\NXT\Working_with_bluetooth - Copie.nxc"
0	210	413		jmp __ASM_Label_939
0	209	415	#line 209 "C:\Users\stan\Desktop\Lund\LegoRobotRuzzle\Opencv_WebCa\NXT\Working_with_bluetooth - Copie.nxc"
0	210	415		mov __signed_stack_001main, __main_7qG2_i_7qG2_003
0	209	417	#line 209 "C:\Users\stan\Desktop\Lund\LegoRobotRuzzle\Opencv_WebCa\NXT\Working_with_bluetooth - Copie.nxc"
0	209	417	#line 209 "C:\Users\stan\Desktop\Lund\LegoRobotRuzzle\Opencv_WebCa\NXT\Working_with_bluetooth - Copie.nxc"
0	210	417		index __main_7qG2_x_7qG2_005, moves, __signed_stack_001main
0	209	421	#line 209 "C:\Users\stan\Desktop\Lund\LegoRobotRuzzle\Opencv_WebCa\NXT\Working_with_bluetooth - Copie.nxc"
0	210	421	#line 210 "C:\Users\stan\Desktop\Lund\LegoRobotRuzzle\Opencv_WebCa\NXT\Working_with_bluetooth - Copie.nxc"
0	210	421	#line 210 "C:\Users\stan\Desktop\Lund\LegoRobotRuzzle\Opencv_WebCa\NXT\Working_with_bluetooth - Copie.nxc"
0	211	421		mov __signed_stack_001main, __main_7qG2_i_7qG2_003
0	210	423	#line 210 "C:\Users\stan\Desktop\Lund\LegoRobotRuzzle\Opencv_WebCa\NXT\Working_with_bluetooth - Copie.nxc"
0	210	423	#line 210 "C:\Users\stan\Desktop\Lund\LegoRobotRuzzle\Opencv_WebCa\NXT\Working_with_bluetooth - Copie.nxc"
0	211	423		set __D0main, 1
0	210	426	#line 210 "C:\Users\stan\Desktop\Lund\LegoRobotRuzzle\Opencv_WebCa\NXT\Working_with_bluetooth - Copie.nxc"
0	211	426		add __signed_stack_001main, __signed_stack_001main, __D0main
0	210	430	#line 210 "C:\Users\stan\Desktop\Lund\LegoRobotRuzzle\Opencv_WebCa\NXT\Working_with_bluetooth - Copie.nxc"
0	210	430	#line 210 "C:\Users\stan\Desktop\Lund\LegoRobotRuzzle\Opencv_WebCa\NXT\Working_with_bluetooth - Copie.nxc"
0	211	430		index __main_7qG2_y_7qG2_005, moves, __signed_stack_001main
0	210	434	#line 210 "C:\Users\stan\Desktop\Lund\LegoRobotRuzzle\Opencv_WebCa\NXT\Working_with_bluetooth - Copie.nxc"
0	211	434	#line 211 "C:\Users\stan\Desktop\Lund\LegoRobotRuzzle\Opencv_WebCa\NXT\Working_with_bluetooth - Copie.nxc"
0	212	434	#line 212 "C:\Users\stan\Desktop\Lund\LegoRobotRuzzle\Opencv_WebCa\NXT\Working_with_bluetooth - Copie.nxc"
0	213	434		mov __main_7qG2_X_7qG2_001, __main_7qG2_x_7qG2_005
0	212	436	#line 212 "C:\Users\stan\Desktop\Lund\LegoRobotRuzzle\Opencv_WebCa\NXT\Working_with_bluetooth - Copie.nxc"
0	212	436	#line 212 "C:\Users\stan\Desktop\Lund\LegoRobotRuzzle\Opencv_WebCa\NXT\Working_with_bluetooth - Copie.nxc"
0	213	436	#line 213 "C:\Users\stan\Desktop\Lund\LegoRobotRuzzle\Opencv_WebCa\NXT\Working_with_bluetooth - Copie.nxc"
0	214	436		mov __main_7qG2_Y_7qG2_001, __main_7qG2_y_7qG2_005
0	213	438	#line 213 "C:\Users\stan\Desktop\Lund\LegoRobotRuzzle\Opencv_WebCa\NXT\Working_with_bluetooth - Copie.nxc"
0	213	438	#line 213 "C:\Users\stan\Desktop\Lund\LegoRobotRuzzle\Opencv_WebCa\NXT\Working_with_bluetooth - Copie.nxc"
0	213	438	#line 213 "C:\Users\stan\Desktop\Lund\LegoRobotRuzzle\Opencv_WebCa\NXT\Working_with_bluetooth - Copie.nxc"
0	214	438		mov __goToCoordinate_7qG2_sX_7qG2_000, __main_7qG2_x_7qG2_005
0	213	440	#line 213 "C:\Users\stan\Desktop\Lund\LegoRobotRuzzle\Opencv_WebCa\NXT\Working_with_bluetooth - Copie.nxc"
0	213	440	#line 213 "C:\Users\stan\Desktop\Lund\LegoRobotRuzzle\Opencv_WebCa\NXT\Working_with_bluetooth - Copie.nxc"
0	214	440		mov __goToCoordinate_7qG2_sY_7qG2_000, __main_7qG2_y_7qG2_005
0	213	442	#line 213 "C:\Users\stan\Desktop\Lund\LegoRobotRuzzle\Opencv_WebCa\NXT\Working_with_bluetooth - Copie.nxc"
0	214	442	#line 214 "C:\Users\stan\Desktop\Lund\LegoRobotRuzzle\Opencv_WebCa\NXT\Working_with_bluetooth - Copie.nxc"
0	215	442		subcall goToCoordinate, __goToCoordinate_return
0	214	444	#line 214 "C:\Users\stan\Desktop\Lund\LegoRobotRuzzle\Opencv_WebCa\NXT\Working_with_bluetooth - Copie.nxc"
0	215	444	#line 215 "C:\Users\stan\Desktop\Lund\LegoRobotRuzzle\Opencv_WebCa\NXT\Working_with_bluetooth - Copie.nxc"
0	216	444		add __main_7qG2_i_7qG2_003, __main_7qG2_i_7qG2_003, __constVal1
0	215	448	#line 215 "C:\Users\stan\Desktop\Lund\LegoRobotRuzzle\Opencv_WebCa\NXT\Working_with_bluetooth - Copie.nxc"
0	216	448	#line 216 "C:\Users\stan\Desktop\Lund\LegoRobotRuzzle\Opencv_WebCa\NXT\Working_with_bluetooth - Copie.nxc"
0	216	448	#line 216 "C:\Users\stan\Desktop\Lund\LegoRobotRuzzle\Opencv_WebCa\NXT\Working_with_bluetooth - Copie.nxc"
0	217	448	#line 217 "C:\Users\stan\Desktop\Lund\LegoRobotRuzzle\Opencv_WebCa\NXT\Working_with_bluetooth - Copie.nxc"
0	218	448		subcall checkMessage, __checkMessage_return
0	217	450	#line 217 "C:\Users\stan\Desktop\Lund\LegoRobotRuzzle\Opencv_WebCa\NXT\Working_with_bluetooth - Copie.nxc"
0	217	450	#line 217 "C:\Users\stan\Desktop\Lund\LegoRobotRuzzle\Opencv_WebCa\NXT\Working_with_bluetooth - Copie.nxc"
0	218	450		mov __DU0main, newRoute
0	218	452	#line 218 "C:\Users\stan\Desktop\Lund\LegoRobotRuzzle\Opencv_WebCa\NXT\Working_with_bluetooth - Copie.nxc"
0	219	452		tst 5, __D0main, __DU0main
0	218	455	#line 218 "C:\Users\stan\Desktop\Lund\LegoRobotRuzzle\Opencv_WebCa\NXT\Working_with_bluetooth - Copie.nxc"
0	219	455		brtst 4, __ASM_Label_958, __D0main
0	219	458	#line 219 "C:\Users\stan\Desktop\Lund\LegoRobotRuzzle\Opencv_WebCa\NXT\Working_with_bluetooth - Copie.nxc"
0	220	458		jmp __ASM_Label_913
0	219	460	#line 219 "C:\Users\stan\Desktop\Lund\LegoRobotRuzzle\Opencv_WebCa\NXT\Working_with_bluetooth - Copie.nxc"
0	220	460	#line 220 "C:\Users\stan\Desktop\Lund\LegoRobotRuzzle\Opencv_WebCa\NXT\Working_with_bluetooth - Copie.nxc"
0	220	460	#line 220 "C:\Users\stan\Desktop\Lund\LegoRobotRuzzle\Opencv_WebCa\NXT\Working_with_bluetooth - Copie.nxc"
0	221	460		mov __signed_stack_001main, continueExecutionFlag
0	220	462	#line 220 "C:\Users\stan\Desktop\Lund\LegoRobotRuzzle\Opencv_WebCa\NXT\Working_with_bluetooth - Copie.nxc"
0	220	462	#line 220 "C:\Users\stan\Desktop\Lund\LegoRobotRuzzle\Opencv_WebCa\NXT\Working_with_bluetooth - Copie.nxc"
0	221	462		set __D0main, 0
0	220	465	#line 220 "C:\Users\stan\Desktop\Lund\LegoRobotRuzzle\Opencv_WebCa\NXT\Working_with_bluetooth - Copie.nxc"
0	221	465		cmp 4, __D0main, __signed_stack_001main, __D0main
0	221	469	#line 221 "C:\Users\stan\Desktop\Lund\LegoRobotRuzzle\Opencv_WebCa\NXT\Working_with_bluetooth - Copie.nxc"
0	222	469		brtst 4, __ASM_Label_961, __D0main
0	221	472	#line 221 "C:\Users\stan\Desktop\Lund\LegoRobotRuzzle\Opencv_WebCa\NXT\Working_with_bluetooth - Copie.nxc"
0	222	472		set __rotateMotorToDegree_7qG2_motor_7qG2_000, 1
0	221	475	#line 221 "C:\Users\stan\Desktop\Lund\LegoRobotRuzzle\Opencv_WebCa\NXT\Working_with_bluetooth - Copie.nxc"
0	221	475	#line 221 "C:\Users\stan\Desktop\Lund\LegoRobotRuzzle\Opencv_WebCa\NXT\Working_with_bluetooth - Copie.nxc"
0	222	475		mov __rotateMotorToDegree_7qG2_degree_7qG2_000, __constValNeg300
0	221	477	#line 221 "C:\Users\stan\Desktop\Lund\LegoRobotRuzzle\Opencv_WebCa\NXT\Working_with_bluetooth - Copie.nxc"
0	222	477	#line 222 "C:\Users\stan\Desktop\Lund\LegoRobotRuzzle\Opencv_WebCa\NXT\Working_with_bluetooth - Copie.nxc"
0	223	477		subcall rotateMotorToDegree, __rotateMotorToDegree_return
0	222	479	#line 222 "C:\Users\stan\Desktop\Lund\LegoRobotRuzzle\Opencv_WebCa\NXT\Working_with_bluetooth - Copie.nxc"
0	223	479	#line 223 "C:\Users\stan\Desktop\Lund\LegoRobotRuzzle\Opencv_WebCa\NXT\Working_with_bluetooth - Copie.nxc"
0	224	479		set continueExecutionFlag, 1
0	223	482	#line 223 "C:\Users\stan\Desktop\Lund\LegoRobotRuzzle\Opencv_WebCa\NXT\Working_with_bluetooth - Copie.nxc"
0	223	482	#line 223 "C:\Users\stan\Desktop\Lund\LegoRobotRuzzle\Opencv_WebCa\NXT\Working_with_bluetooth - Copie.nxc"
0	224	482	#line 224 "C:\Users\stan\Desktop\Lund\LegoRobotRuzzle\Opencv_WebCa\NXT\Working_with_bluetooth - Copie.nxc"
0	225	482		jmp __ASM_Label_913
0	224	484	#line 224 "C:\Users\stan\Desktop\Lund\LegoRobotRuzzle\Opencv_WebCa\NXT\Working_with_bluetooth - Copie.nxc"
0	227	484	#line 227 "C:\Users\stan\Desktop\Lund\LegoRobotRuzzle\Opencv_WebCa\NXT\Working_with_bluetooth - Copie.nxc"
0	227	484	#line 227 "C:\Users\stan\Desktop\Lund\LegoRobotRuzzle\Opencv_WebCa\NXT\Working_with_bluetooth - Copie.nxc"
0	228	484		jmp __ASM_Label_915
0	227	486	#line 227 "C:\Users\stan\Desktop\Lund\LegoRobotRuzzle\Opencv_WebCa\NXT\Working_with_bluetooth - Copie.nxc"
0	227	486	#line 227 "C:\Users\stan\Desktop\Lund\LegoRobotRuzzle\Opencv_WebCa\NXT\Working_with_bluetooth - Copie.nxc"
0	228	486		set __PosRegSetAngle_7qG2_output_7qG2_000_inline_main, 0
0	227	489	#line 227 "C:\Users\stan\Desktop\Lund\LegoRobotRuzzle\Opencv_WebCa\NXT\Working_with_bluetooth - Copie.nxc"
0	227	489	#line 227 "C:\Users\stan\Desktop\Lund\LegoRobotRuzzle\Opencv_WebCa\NXT\Working_with_bluetooth - Copie.nxc"
0	228	489		set __PosRegSetAngle_7qG2_angle_7qG2_000_inline_main, 0
0	227	492	#line 227 "C:\Users\stan\Desktop\Lund\LegoRobotRuzzle\Opencv_WebCa\NXT\Working_with_bluetooth - Copie.nxc"
0	20915	492	#line 20915 "NXCDefs.h"
0	20916	492		mov __signed_stack_001PosRegSetAngle_inline_main, __PosRegSetAngle_7qG2_angle_7qG2_000_inline_main
0	20915	494	#line 20915 "NXCDefs.h"
0	20915	494	#line 20915 "NXCDefs.h"
0	20916	494		set __D0PosRegSetAngle_inline_main, 4
0	20916	497	#line 20916 "NXCDefs.h"
0	20916	497	#line 20916 "NXCDefs.h"
0	20917	497		setout __PosRegSetAngle_7qG2_output_7qG2_000_inline_main, 5, __signed_stack_001PosRegSetAngle_inline_main, 0, __D0PosRegSetAngle_inline_main
0	20916	504	#line 20916 "NXCDefs.h"
0	20916	504	#line 20916 "NXCDefs.h"
0	20916	504	#line 20916 "NXCDefs.h"
0	20916	504	#line 20916 "NXCDefs.h"
0	20916	504	#line 20916 "NXCDefs.h"
0	20916	504	#line 20916 "NXCDefs.h"
0	228	504	#line 228 "C:\Users\stan\Desktop\Lund\LegoRobotRuzzle\Opencv_WebCa\NXT\Working_with_bluetooth - Copie.nxc"
0	228	504	#line 228 "C:\Users\stan\Desktop\Lund\LegoRobotRuzzle\Opencv_WebCa\NXT\Working_with_bluetooth - Copie.nxc"
0	229	504		set __PosRegSetAngle_7qG2_output_7qG2_000_inline_main, 2
0	228	507	#line 228 "C:\Users\stan\Desktop\Lund\LegoRobotRuzzle\Opencv_WebCa\NXT\Working_with_bluetooth - Copie.nxc"
0	228	507	#line 228 "C:\Users\stan\Desktop\Lund\LegoRobotRuzzle\Opencv_WebCa\NXT\Working_with_bluetooth - Copie.nxc"
0	229	507		set __PosRegSetAngle_7qG2_angle_7qG2_000_inline_main, 0
0	228	510	#line 228 "C:\Users\stan\Desktop\Lund\LegoRobotRuzzle\Opencv_WebCa\NXT\Working_with_bluetooth - Copie.nxc"
0	20915	510	#line 20915 "NXCDefs.h"
0	20916	510		mov __signed_stack_001PosRegSetAngle_inline_main, __PosRegSetAngle_7qG2_angle_7qG2_000_inline_main
0	20915	512	#line 20915 "NXCDefs.h"
0	20915	512	#line 20915 "NXCDefs.h"
0	20916	512		set __D0PosRegSetAngle_inline_main, 4
0	20916	515	#line 20916 "NXCDefs.h"
0	20916	515	#line 20916 "NXCDefs.h"
0	20917	515		setout __PosRegSetAngle_7qG2_output_7qG2_000_inline_main, 5, __signed_stack_001PosRegSetAngle_inline_main, 0, __D0PosRegSetAngle_inline_main
0	20916	522	#line 20916 "NXCDefs.h"
0	20916	522	#line 20916 "NXCDefs.h"
0	20916	522	#line 20916 "NXCDefs.h"
0	20916	522	#line 20916 "NXCDefs.h"
0	20916	522	#line 20916 "NXCDefs.h"
0	20916	522	#line 20916 "NXCDefs.h"
0	229	522	#line 229 "C:\Users\stan\Desktop\Lund\LegoRobotRuzzle\Opencv_WebCa\NXT\Working_with_bluetooth - Copie.nxc"
0	229	522	#line 229 "C:\Users\stan\Desktop\Lund\LegoRobotRuzzle\Opencv_WebCa\NXT\Working_with_bluetooth - Copie.nxc"
0	230	522		set __PlaySound_7qG2_aCode_7qG2_000, 3
0	229	525	#line 229 "C:\Users\stan\Desktop\Lund\LegoRobotRuzzle\Opencv_WebCa\NXT\Working_with_bluetooth - Copie.nxc"
0	231	525	#line 231 "C:\Users\stan\Desktop\Lund\LegoRobotRuzzle\Opencv_WebCa\NXT\Working_with_bluetooth - Copie.nxc"
0	232	525		subcall PlaySound, __PlaySound_return
0	231	527	#line 231 "C:\Users\stan\Desktop\Lund\LegoRobotRuzzle\Opencv_WebCa\NXT\Working_with_bluetooth - Copie.nxc"
0	235	527	#line 235 "C:\Users\stan\Desktop\Lund\LegoRobotRuzzle\Opencv_WebCa\NXT\Working_with_bluetooth - Copie.nxc"
0	237	527	#line 237 "C:\Users\stan\Desktop\Lund\LegoRobotRuzzle\Opencv_WebCa\NXT\Working_with_bluetooth - Copie.nxc"
0	238	527		jmp __ASM_Label_899
0	237	529	#line 237 "C:\Users\stan\Desktop\Lund\LegoRobotRuzzle\Opencv_WebCa\NXT\Working_with_bluetooth - Copie.nxc"
0	238	529		exit -1, -1
1	7127	0	#line 7127 "NXCDefs.h"
1	7128	0		mov __signed_stack_001PlaySound, __PlaySound_7qG2_aCode_7qG2_000
1	7127	2	#line 7127 "NXCDefs.h"
1	7128	2	#line 7128 "NXCDefs.h"
1	7129	2		set __D0PlaySound, 0
1	7128	5	#line 7128 "NXCDefs.h"
1	7129	5		cmp 4, __D0PlaySound, __signed_stack_001PlaySound, __D0PlaySound
1	7128	9	#line 7128 "NXCDefs.h"
1	7129	9		brtst 4, __ASM_Label_56, __D0PlaySound
1	7128	12	#line 7128 "NXCDefs.h"
1	7129	12		set __signed_stack_001PlaySound, 600
1	7128	15	#line 7128 "NXCDefs.h"
1	7128	15	#line 7128 "NXCDefs.h"
1	7129	15		set __signed_stack_002PlaySound, 200
1	7128	18	#line 7128 "NXCDefs.h"
1	7128	18	#line 7128 "NXCDefs.h"
1	7129	18		set __signed_stack_003PlaySound, 4
1	7128	21	#line 7128 "NXCDefs.h"
1	7128	21	#line 7128 "NXCDefs.h"
1	7129	21		set __D0PlaySound, 0
1	7129	24	#line 7129 "NXCDefs.h"
1	7130	24		acquire __SPTArgsMutex
1	7129	25	#line 7129 "NXCDefs.h"
1	7130	25		mov __SPTArgs.Frequency, __signed_stack_001PlaySound
1	7129	28	#line 7129 "NXCDefs.h"
1	7130	28		mov __SPTArgs.Duration, __signed_stack_002PlaySound
1	7129	31	#line 7129 "NXCDefs.h"
1	7130	31		mov __SPTArgs.Volume, __signed_stack_003PlaySound
1	7129	34	#line 7129 "NXCDefs.h"
1	7130	34		mov __SPTArgs.Loop, __D0PlaySound
1	7129	36	#line 7129 "NXCDefs.h"
1	7130	36		syscall 10, __SPTArgs
1	7129	39	#line 7129 "NXCDefs.h"
1	7130	39		mov __D0PlaySound, __SPTArgs.Result
1	7129	41	#line 7129 "NXCDefs.h"
1	7130	41		release __SPTArgsMutex
1	7129	42	#line 7129 "NXCDefs.h"
1	7129	42	#line 7129 "NXCDefs.h"
1	7130	42		jmp __ASM_Label_65
1	7129	44	#line 7129 "NXCDefs.h"
1	7130	44		mov __signed_stack_001PlaySound, __PlaySound_7qG2_aCode_7qG2_000
1	7129	46	#line 7129 "NXCDefs.h"
1	7130	46	#line 7130 "NXCDefs.h"
1	7131	46		set __D0PlaySound, 1
1	7130	49	#line 7130 "NXCDefs.h"
1	7131	49		cmp 4, __D0PlaySound, __signed_stack_001PlaySound, __D0PlaySound
1	7131	53	#line 7131 "NXCDefs.h"
1	7132	53		brtst 4, __ASM_Label_68, __D0PlaySound
1	7131	56	#line 7131 "NXCDefs.h"
1	7132	56		set __signed_stack_001PlaySound, 600
1	7131	59	#line 7131 "NXCDefs.h"
1	7131	59	#line 7131 "NXCDefs.h"
1	7132	59		set __signed_stack_002PlaySound, 150
1	7131	62	#line 7131 "NXCDefs.h"
1	7131	62	#line 7131 "NXCDefs.h"
1	7132	62		set __signed_stack_003PlaySound, 4
1	7131	65	#line 7131 "NXCDefs.h"
1	7131	65	#line 7131 "NXCDefs.h"
1	7132	65		set __D0PlaySound, 0
1	7132	68	#line 7132 "NXCDefs.h"
1	7133	68		acquire __SPTArgsMutex
1	7132	69	#line 7132 "NXCDefs.h"
1	7133	69		mov __SPTArgs.Frequency, __signed_stack_001PlaySound
1	7132	72	#line 7132 "NXCDefs.h"
1	7133	72		mov __SPTArgs.Duration, __signed_stack_002PlaySound
1	7132	75	#line 7132 "NXCDefs.h"
1	7133	75		mov __SPTArgs.Volume, __signed_stack_003PlaySound
1	7132	78	#line 7132 "NXCDefs.h"
1	7133	78		mov __SPTArgs.Loop, __D0PlaySound
1	7132	80	#line 7132 "NXCDefs.h"
1	7133	80		syscall 10, __SPTArgs
1	7132	83	#line 7132 "NXCDefs.h"
1	7133	83		mov __D0PlaySound, __SPTArgs.Result
1	7132	85	#line 7132 "NXCDefs.h"
1	7133	85		release __SPTArgsMutex
1	7132	86	#line 7132 "NXCDefs.h"
1	7132	86	#line 7132 "NXCDefs.h"
1	7133	86		wait 200
1	7132	88	#line 7132 "NXCDefs.h"
1	7132	88	#line 7132 "NXCDefs.h"
1	7133	88	#line 7133 "NXCDefs.h"
1	7134	88		set __signed_stack_001PlaySound, 600
1	7133	91	#line 7133 "NXCDefs.h"
1	7133	91	#line 7133 "NXCDefs.h"
1	7134	91		set __signed_stack_002PlaySound, 150
1	7133	94	#line 7133 "NXCDefs.h"
1	7133	94	#line 7133 "NXCDefs.h"
1	7134	94		set __signed_stack_003PlaySound, 4
1	7133	97	#line 7133 "NXCDefs.h"
1	7133	97	#line 7133 "NXCDefs.h"
1	7134	97		set __D0PlaySound, 0
1	7134	100	#line 7134 "NXCDefs.h"
1	7135	100		acquire __SPTArgsMutex
1	7134	101	#line 7134 "NXCDefs.h"
1	7135	101		mov __SPTArgs.Frequency, __signed_stack_001PlaySound
1	7134	104	#line 7134 "NXCDefs.h"
1	7135	104		mov __SPTArgs.Duration, __signed_stack_002PlaySound
1	7134	107	#line 7134 "NXCDefs.h"
1	7135	107		mov __SPTArgs.Volume, __signed_stack_003PlaySound
1	7134	110	#line 7134 "NXCDefs.h"
1	7135	110		mov __SPTArgs.Loop, __D0PlaySound
1	7134	112	#line 7134 "NXCDefs.h"
1	7135	112		syscall 10, __SPTArgs
1	7134	115	#line 7134 "NXCDefs.h"
1	7135	115		mov __D0PlaySound, __SPTArgs.Result
1	7134	117	#line 7134 "NXCDefs.h"
1	7135	117		release __SPTArgsMutex
1	7134	118	#line 7134 "NXCDefs.h"
1	7134	118	#line 7134 "NXCDefs.h"
1	7135	118		wait 150
1	7134	120	#line 7134 "NXCDefs.h"
1	7134	120	#line 7134 "NXCDefs.h"
1	7136	120	#line 7136 "NXCDefs.h"
1	7137	120		jmp __ASM_Label_85
1	7136	122	#line 7136 "NXCDefs.h"
1	7137	122		mov __signed_stack_001PlaySound, __PlaySound_7qG2_aCode_7qG2_000
1	7136	124	#line 7136 "NXCDefs.h"
1	7137	124	#line 7137 "NXCDefs.h"
1	7138	124		set __D0PlaySound, 3
1	7137	127	#line 7137 "NXCDefs.h"
1	7138	127		cmp 4, __D0PlaySound, __signed_stack_001PlaySound, __D0PlaySound
1	7137	131	#line 7137 "NXCDefs.h"
1	7138	131		brtst 4, __ASM_Label_88, __D0PlaySound
1	7137	134	#line 7137 "NXCDefs.h"
1	7138	134		set __PlaySound_7qG2_i_7qG2_001, 4
1	7137	137	#line 7137 "NXCDefs.h"
1	7137	137	#line 7137 "NXCDefs.h"
1	7138	137		mov __signed_stack_001PlaySound, __PlaySound_7qG2_i_7qG2_001
1	7137	139	#line 7137 "NXCDefs.h"
1	7137	139	#line 7137 "NXCDefs.h"
1	7138	139		set __D0PlaySound, 8
1	7137	142	#line 7137 "NXCDefs.h"
1	7138	142		cmp 0, __D0PlaySound, __signed_stack_001PlaySound, __D0PlaySound
1	7137	146	#line 7137 "NXCDefs.h"
1	7138	146		brtst 4, __ASM_Label_90, __D0PlaySound
1	7137	149	#line 7137 "NXCDefs.h"
1	7138	149		jmp __ASM_Label_91
1	7138	151	#line 7138 "NXCDefs.h"
1	7139	151		add __PlaySound_7qG2_i_7qG2_001, __PlaySound_7qG2_i_7qG2_001, __constVal1
1	7139	155	#line 7139 "NXCDefs.h"
1	7140	155		jmp __ASM_Label_89
1	7139	157	#line 7139 "NXCDefs.h"
1	7140	157		set __signed_stack_001PlaySound, 523
1	7139	160	#line 7139 "NXCDefs.h"
1	7139	160	#line 7139 "NXCDefs.h"
1	7140	160		mov __D0PlaySound, __PlaySound_7qG2_i_7qG2_001
1	7139	162	#line 7139 "NXCDefs.h"
1	7140	162		mul __signed_stack_001PlaySound, __signed_stack_001PlaySound, __D0PlaySound
1	7139	166	#line 7139 "NXCDefs.h"
1	7139	166	#line 7139 "NXCDefs.h"
1	7140	166		set __D0PlaySound, 4
1	7139	169	#line 7139 "NXCDefs.h"
1	7140	169		div __signed_stack_001PlaySound, __signed_stack_001PlaySound, __D0PlaySound
1	7139	173	#line 7139 "NXCDefs.h"
1	7139	173	#line 7139 "NXCDefs.h"
1	7140	173		set __signed_stack_002PlaySound, 100
1	7139	176	#line 7139 "NXCDefs.h"
1	7139	176	#line 7139 "NXCDefs.h"
1	7140	176		set __signed_stack_003PlaySound, 4
1	7139	179	#line 7139 "NXCDefs.h"
1	7139	179	#line 7139 "NXCDefs.h"
1	7140	179		set __D0PlaySound, 0
1	7140	182	#line 7140 "NXCDefs.h"
1	7141	182		acquire __SPTArgsMutex
1	7140	183	#line 7140 "NXCDefs.h"
1	7141	183		mov __SPTArgs.Frequency, __signed_stack_001PlaySound
1	7140	186	#line 7140 "NXCDefs.h"
1	7141	186		mov __SPTArgs.Duration, __signed_stack_002PlaySound
1	7140	189	#line 7140 "NXCDefs.h"
1	7141	189		mov __SPTArgs.Volume, __signed_stack_003PlaySound
1	7140	192	#line 7140 "NXCDefs.h"
1	7141	192		mov __SPTArgs.Loop, __D0PlaySound
1	7140	194	#line 7140 "NXCDefs.h"
1	7141	194		syscall 10, __SPTArgs
1	7140	197	#line 7140 "NXCDefs.h"
1	7141	197		mov __D0PlaySound, __SPTArgs.Result
1	7140	199	#line 7140 "NXCDefs.h"
1	7141	199		release __SPTArgsMutex
1	7140	200	#line 7140 "NXCDefs.h"
1	7140	200	#line 7140 "NXCDefs.h"
1	7141	200		wait 100
1	7140	202	#line 7140 "NXCDefs.h"
1	7140	202	#line 7140 "NXCDefs.h"
1	7142	202	#line 7142 "NXCDefs.h"
1	7143	202		jmp __ASM_Label_92
1	7142	204	#line 7142 "NXCDefs.h"
1	7142	204	#line 7142 "NXCDefs.h"
1	7143	204		jmp __ASM_Label_105
1	7142	206	#line 7142 "NXCDefs.h"
1	7143	206		mov __signed_stack_001PlaySound, __PlaySound_7qG2_aCode_7qG2_000
1	7142	208	#line 7142 "NXCDefs.h"
1	7143	208	#line 7143 "NXCDefs.h"
1	7144	208		set __D0PlaySound, 2
1	7143	211	#line 7143 "NXCDefs.h"
1	7144	211		cmp 4, __D0PlaySound, __signed_stack_001PlaySound, __D0PlaySound
1	7143	215	#line 7143 "NXCDefs.h"
1	7144	215		brtst 4, __ASM_Label_108, __D0PlaySound
1	7143	218	#line 7143 "NXCDefs.h"
1	7144	218		set __PlaySound_7qG2_i_7qG2_001, 7
1	7143	221	#line 7143 "NXCDefs.h"
1	7143	221	#line 7143 "NXCDefs.h"
1	7144	221		mov __signed_stack_001PlaySound, __PlaySound_7qG2_i_7qG2_001
1	7143	223	#line 7143 "NXCDefs.h"
1	7143	223	#line 7143 "NXCDefs.h"
1	7144	223		set __D0PlaySound, 3
1	7143	226	#line 7143 "NXCDefs.h"
1	7144	226		cmp 1, __D0PlaySound, __signed_stack_001PlaySound, __D0PlaySound
1	7143	230	#line 7143 "NXCDefs.h"
1	7144	230		brtst 4, __ASM_Label_110, __D0PlaySound
1	7143	233	#line 7143 "NXCDefs.h"
1	7144	233		jmp __ASM_Label_111
1	7144	235	#line 7144 "NXCDefs.h"
1	7145	235		sub __PlaySound_7qG2_i_7qG2_001, __PlaySound_7qG2_i_7qG2_001, __constVal1
1	7145	239	#line 7145 "NXCDefs.h"
1	7146	239		jmp __ASM_Label_109
1	7145	241	#line 7145 "NXCDefs.h"
1	7146	241		set __signed_stack_001PlaySound, 523
1	7145	244	#line 7145 "NXCDefs.h"
1	7145	244	#line 7145 "NXCDefs.h"
1	7146	244		mov __D0PlaySound, __PlaySound_7qG2_i_7qG2_001
1	7145	246	#line 7145 "NXCDefs.h"
1	7146	246		mul __signed_stack_001PlaySound, __signed_stack_001PlaySound, __D0PlaySound
1	7145	250	#line 7145 "NXCDefs.h"
1	7145	250	#line 7145 "NXCDefs.h"
1	7146	250		set __D0PlaySound, 4
1	7145	253	#line 7145 "NXCDefs.h"
1	7146	253		div __signed_stack_001PlaySound, __signed_stack_001PlaySound, __D0PlaySound
1	7145	257	#line 7145 "NXCDefs.h"
1	7145	257	#line 7145 "NXCDefs.h"
1	7146	257		set __signed_stack_002PlaySound, 100
1	7145	260	#line 7145 "NXCDefs.h"
1	7145	260	#line 7145 "NXCDefs.h"
1	7146	260		set __signed_stack_003PlaySound, 4
1	7145	263	#line 7145 "NXCDefs.h"
1	7145	263	#line 7145 "NXCDefs.h"
1	7146	263		set __D0PlaySound, 0
1	7146	266	#line 7146 "NXCDefs.h"
1	7147	266		acquire __SPTArgsMutex
1	7146	267	#line 7146 "NXCDefs.h"
1	7147	267		mov __SPTArgs.Frequency, __signed_stack_001PlaySound
1	7146	270	#line 7146 "NXCDefs.h"
1	7147	270		mov __SPTArgs.Duration, __signed_stack_002PlaySound
1	7146	273	#line 7146 "NXCDefs.h"
1	7147	273		mov __SPTArgs.Volume, __signed_stack_003PlaySound
1	7146	276	#line 7146 "NXCDefs.h"
1	7147	276		mov __SPTArgs.Loop, __D0PlaySound
1	7146	278	#line 7146 "NXCDefs.h"
1	7147	278		syscall 10, __SPTArgs
1	7146	281	#line 7146 "NXCDefs.h"
1	7147	281		mov __D0PlaySound, __SPTArgs.Result
1	7146	283	#line 7146 "NXCDefs.h"
1	7147	283		release __SPTArgsMutex
1	7146	284	#line 7146 "NXCDefs.h"
1	7146	284	#line 7146 "NXCDefs.h"
1	7147	284		wait 100
1	7146	286	#line 7146 "NXCDefs.h"
1	7146	286	#line 7146 "NXCDefs.h"
1	7148	286	#line 7148 "NXCDefs.h"
1	7149	286		jmp __ASM_Label_112
1	7148	288	#line 7148 "NXCDefs.h"
1	7148	288	#line 7148 "NXCDefs.h"
1	7149	288		jmp __ASM_Label_125
1	7148	290	#line 7148 "NXCDefs.h"
1	7149	290		mov __signed_stack_001PlaySound, __PlaySound_7qG2_aCode_7qG2_000
1	7148	292	#line 7148 "NXCDefs.h"
1	7149	292	#line 7149 "NXCDefs.h"
1	7150	292		set __D0PlaySound, 4
1	7149	295	#line 7149 "NXCDefs.h"
1	7150	295		cmp 4, __D0PlaySound, __signed_stack_001PlaySound, __D0PlaySound
1	7150	299	#line 7150 "NXCDefs.h"
1	7151	299		brtst 4, __ASM_Label_128, __D0PlaySound
1	7150	302	#line 7150 "NXCDefs.h"
1	7151	302		set __signed_stack_001PlaySound, 100
1	7150	305	#line 7150 "NXCDefs.h"
1	7150	305	#line 7150 "NXCDefs.h"
1	7151	305		set __signed_stack_002PlaySound, 500
1	7150	308	#line 7150 "NXCDefs.h"
1	7150	308	#line 7150 "NXCDefs.h"
1	7151	308		set __signed_stack_003PlaySound, 4
1	7150	311	#line 7150 "NXCDefs.h"
1	7150	311	#line 7150 "NXCDefs.h"
1	7151	311		set __D0PlaySound, 0
1	7151	314	#line 7151 "NXCDefs.h"
1	7152	314		acquire __SPTArgsMutex
1	7151	315	#line 7151 "NXCDefs.h"
1	7152	315		mov __SPTArgs.Frequency, __signed_stack_001PlaySound
1	7151	318	#line 7151 "NXCDefs.h"
1	7152	318		mov __SPTArgs.Duration, __signed_stack_002PlaySound
1	7151	321	#line 7151 "NXCDefs.h"
1	7152	321		mov __SPTArgs.Volume, __signed_stack_003PlaySound
1	7151	324	#line 7151 "NXCDefs.h"
1	7152	324		mov __SPTArgs.Loop, __D0PlaySound
1	7151	326	#line 7151 "NXCDefs.h"
1	7152	326		syscall 10, __SPTArgs
1	7151	329	#line 7151 "NXCDefs.h"
1	7152	329		mov __D0PlaySound, __SPTArgs.Result
1	7151	331	#line 7151 "NXCDefs.h"
1	7152	331		release __SPTArgsMutex
1	7151	332	#line 7151 "NXCDefs.h"
1	7151	332	#line 7151 "NXCDefs.h"
1	7152	332		wait 500
1	7151	334	#line 7151 "NXCDefs.h"
1	7151	334	#line 7151 "NXCDefs.h"
1	7153	334	#line 7153 "NXCDefs.h"
1	7154	334		jmp __ASM_Label_137
1	7153	336	#line 7153 "NXCDefs.h"
1	7154	336		mov __signed_stack_001PlaySound, __PlaySound_7qG2_aCode_7qG2_000
1	7153	338	#line 7153 "NXCDefs.h"
1	7154	338	#line 7154 "NXCDefs.h"
1	7155	338		set __D0PlaySound, 5
1	7154	341	#line 7154 "NXCDefs.h"
1	7155	341		cmp 4, __D0PlaySound, __signed_stack_001PlaySound, __D0PlaySound
1	7154	345	#line 7154 "NXCDefs.h"
1	7155	345		brtst 4, __ASM_Label_140, __D0PlaySound
1	7154	348	#line 7154 "NXCDefs.h"
1	7155	348		set __PlaySound_7qG2_i_7qG2_001, 4
1	7154	351	#line 7154 "NXCDefs.h"
1	7154	351	#line 7154 "NXCDefs.h"
1	7155	351		mov __signed_stack_001PlaySound, __PlaySound_7qG2_i_7qG2_001
1	7154	353	#line 7154 "NXCDefs.h"
1	7154	353	#line 7154 "NXCDefs.h"
1	7155	353		set __D0PlaySound, 8
1	7154	356	#line 7154 "NXCDefs.h"
1	7155	356		cmp 0, __D0PlaySound, __signed_stack_001PlaySound, __D0PlaySound
1	7154	360	#line 7154 "NXCDefs.h"
1	7155	360		brtst 4, __ASM_Label_142, __D0PlaySound
1	7154	363	#line 7154 "NXCDefs.h"
1	7155	363		jmp __ASM_Label_143
1	7155	365	#line 7155 "NXCDefs.h"
1	7156	365		add __PlaySound_7qG2_i_7qG2_001, __PlaySound_7qG2_i_7qG2_001, __constVal1
1	7156	369	#line 7156 "NXCDefs.h"
1	7157	369		jmp __ASM_Label_141
1	7156	371	#line 7156 "NXCDefs.h"
1	7157	371		set __signed_stack_001PlaySound, 523
1	7156	374	#line 7156 "NXCDefs.h"
1	7156	374	#line 7156 "NXCDefs.h"
1	7157	374		mov __D0PlaySound, __PlaySound_7qG2_i_7qG2_001
1	7156	376	#line 7156 "NXCDefs.h"
1	7157	376		mul __signed_stack_001PlaySound, __signed_stack_001PlaySound, __D0PlaySound
1	7156	380	#line 7156 "NXCDefs.h"
1	7156	380	#line 7156 "NXCDefs.h"
1	7157	380		set __D0PlaySound, 4
1	7156	383	#line 7156 "NXCDefs.h"
1	7157	383		div __signed_stack_001PlaySound, __signed_stack_001PlaySound, __D0PlaySound
1	7156	387	#line 7156 "NXCDefs.h"
1	7156	387	#line 7156 "NXCDefs.h"
1	7157	387		set __signed_stack_002PlaySound, 50
1	7156	390	#line 7156 "NXCDefs.h"
1	7156	390	#line 7156 "NXCDefs.h"
1	7157	390		set __signed_stack_003PlaySound, 4
1	7156	393	#line 7156 "NXCDefs.h"
1	7156	393	#line 7156 "NXCDefs.h"
1	7157	393		set __D0PlaySound, 0
1	7157	396	#line 7157 "NXCDefs.h"
1	7158	396		acquire __SPTArgsMutex
1	7157	397	#line 7157 "NXCDefs.h"
1	7158	397		mov __SPTArgs.Frequency, __signed_stack_001PlaySound
1	7157	400	#line 7157 "NXCDefs.h"
1	7158	400		mov __SPTArgs.Duration, __signed_stack_002PlaySound
1	7157	403	#line 7157 "NXCDefs.h"
1	7158	403		mov __SPTArgs.Volume, __signed_stack_003PlaySound
1	7157	406	#line 7157 "NXCDefs.h"
1	7158	406		mov __SPTArgs.Loop, __D0PlaySound
1	7157	408	#line 7157 "NXCDefs.h"
1	7158	408		syscall 10, __SPTArgs
1	7157	411	#line 7157 "NXCDefs.h"
1	7158	411		mov __D0PlaySound, __SPTArgs.Result
1	7157	413	#line 7157 "NXCDefs.h"
1	7158	413		release __SPTArgsMutex
1	7157	414	#line 7157 "NXCDefs.h"
1	7157	414	#line 7157 "NXCDefs.h"
1	7158	414		wait 50
1	7157	416	#line 7157 "NXCDefs.h"
1	7157	416	#line 7157 "NXCDefs.h"
1	7169	416	#line 7169 "NXCDefs.h"
1	7170	416		jmp __ASM_Label_144
1	7169	418	#line 7169 "NXCDefs.h"
1	7169	418	#line 7169 "NXCDefs.h"
1	7169	418	#line 7169 "NXCDefs.h"
1	7169	418	#line 7169 "NXCDefs.h"
1	7169	418	#line 7169 "NXCDefs.h"
1	7169	418	#line 7169 "NXCDefs.h"
1	7169	418	#line 7169 "NXCDefs.h"
1	7169	418	#line 7169 "NXCDefs.h"
1	7170	418		subret __PlaySound_return
2	31	0	#line 31 "C:\Users\stan\Desktop\Lund\LegoRobotRuzzle\Opencv_WebCa\NXT\Working_with_bluetooth - Copie.nxc"
2	32	0		strcat __strbuftestRoute, allRoutes
2	32	4	#line 32 "C:\Users\stan\Desktop\Lund\LegoRobotRuzzle\Opencv_WebCa\NXT\Working_with_bluetooth - Copie.nxc"
2	33	4		arrsize __D0testRoute, __strbuftestRoute
2	33	7		sub lengthAllRoutes, __D0testRoute, __constVal1
2	32	11	#line 32 "C:\Users\stan\Desktop\Lund\LegoRobotRuzzle\Opencv_WebCa\NXT\Working_with_bluetooth - Copie.nxc"
2	32	11	#line 32 "C:\Users\stan\Desktop\Lund\LegoRobotRuzzle\Opencv_WebCa\NXT\Working_with_bluetooth - Copie.nxc"
2	32	11	#line 32 "C:\Users\stan\Desktop\Lund\LegoRobotRuzzle\Opencv_WebCa\NXT\Working_with_bluetooth - Copie.nxc"
2	33	11		arrinit moves, __constVal0, lengthAllRoutes
2	32	15	#line 32 "C:\Users\stan\Desktop\Lund\LegoRobotRuzzle\Opencv_WebCa\NXT\Working_with_bluetooth - Copie.nxc"
2	32	15	#line 32 "C:\Users\stan\Desktop\Lund\LegoRobotRuzzle\Opencv_WebCa\NXT\Working_with_bluetooth - Copie.nxc"
2	34	15	#line 34 "C:\Users\stan\Desktop\Lund\LegoRobotRuzzle\Opencv_WebCa\NXT\Working_with_bluetooth - Copie.nxc"
2	35	15		set __testRoute_7qG2_i_7qG2_001, 0
2	34	18	#line 34 "C:\Users\stan\Desktop\Lund\LegoRobotRuzzle\Opencv_WebCa\NXT\Working_with_bluetooth - Copie.nxc"
2	34	18	#line 34 "C:\Users\stan\Desktop\Lund\LegoRobotRuzzle\Opencv_WebCa\NXT\Working_with_bluetooth - Copie.nxc"
2	35	18		mov __signed_stack_001testRoute, __testRoute_7qG2_i_7qG2_001
2	34	20	#line 34 "C:\Users\stan\Desktop\Lund\LegoRobotRuzzle\Opencv_WebCa\NXT\Working_with_bluetooth - Copie.nxc"
2	34	20	#line 34 "C:\Users\stan\Desktop\Lund\LegoRobotRuzzle\Opencv_WebCa\NXT\Working_with_bluetooth - Copie.nxc"
2	35	20		mov __D0testRoute, lengthAllRoutes
2	34	22	#line 34 "C:\Users\stan\Desktop\Lund\LegoRobotRuzzle\Opencv_WebCa\NXT\Working_with_bluetooth - Copie.nxc"
2	35	22		cmp 0, __D0testRoute, __signed_stack_001testRoute, __D0testRoute
2	34	26	#line 34 "C:\Users\stan\Desktop\Lund\LegoRobotRuzzle\Opencv_WebCa\NXT\Working_with_bluetooth - Copie.nxc"
2	35	26		brtst 4, __ASM_Label_607, __D0testRoute
2	34	29	#line 34 "C:\Users\stan\Desktop\Lund\LegoRobotRuzzle\Opencv_WebCa\NXT\Working_with_bluetooth - Copie.nxc"
2	35	29		jmp __ASM_Label_608
2	34	31	#line 34 "C:\Users\stan\Desktop\Lund\LegoRobotRuzzle\Opencv_WebCa\NXT\Working_with_bluetooth - Copie.nxc"
2	35	31		add __testRoute_7qG2_i_7qG2_001, __testRoute_7qG2_i_7qG2_001, __constVal1
2	35	35	#line 35 "C:\Users\stan\Desktop\Lund\LegoRobotRuzzle\Opencv_WebCa\NXT\Working_with_bluetooth - Copie.nxc"
2	36	35		jmp __ASM_Label_606
2	35	37	#line 35 "C:\Users\stan\Desktop\Lund\LegoRobotRuzzle\Opencv_WebCa\NXT\Working_with_bluetooth - Copie.nxc"
2	36	37		mov __signed_stack_001testRoute, __testRoute_7qG2_i_7qG2_001
2	35	39	#line 35 "C:\Users\stan\Desktop\Lund\LegoRobotRuzzle\Opencv_WebCa\NXT\Working_with_bluetooth - Copie.nxc"
2	35	39	#line 35 "C:\Users\stan\Desktop\Lund\LegoRobotRuzzle\Opencv_WebCa\NXT\Working_with_bluetooth - Copie.nxc"
2	36	39		strcat __strbuftestRoute, allRoutes
2	35	43	#line 35 "C:\Users\stan\Desktop\Lund\LegoRobotRuzzle\Opencv_WebCa\NXT\Working_with_bluetooth - Copie.nxc"
2	36	43		mov __signed_stack_002testRoute, __testRoute_7qG2_i_7qG2_001
2	35	45	#line 35 "C:\Users\stan\Desktop\Lund\LegoRobotRuzzle\Opencv_WebCa\NXT\Working_with_bluetooth - Copie.nxc"
2	35	45	#line 35 "C:\Users\stan\Desktop\Lund\LegoRobotRuzzle\Opencv_WebCa\NXT\Working_with_bluetooth - Copie.nxc"
2	36	45		set __D0testRoute, 1
2	35	48	#line 35 "C:\Users\stan\Desktop\Lund\LegoRobotRuzzle\Opencv_WebCa\NXT\Working_with_bluetooth - Copie.nxc"
2	36	48		strsubset __strretvaltestRoute, __strbuftestRoute, __signed_stack_002testRoute, __D0testRoute
2	35	53	#line 35 "C:\Users\stan\Desktop\Lund\LegoRobotRuzzle\Opencv_WebCa\NXT\Working_with_bluetooth - Copie.nxc"
2	36	53		strcat __strbuftestRoute, __strretvaltestRoute
2	36	57	#line 36 "C:\Users\stan\Desktop\Lund\LegoRobotRuzzle\Opencv_WebCa\NXT\Working_with_bluetooth - Copie.nxc"
2	37	57		strtonum __D0testRoute, __signed_stack_002testRoute, __strbuftestRoute, 65535, 65535
2	36	63	#line 36 "C:\Users\stan\Desktop\Lund\LegoRobotRuzzle\Opencv_WebCa\NXT\Working_with_bluetooth - Copie.nxc"
2	37	63		replace moves, moves, __signed_stack_001testRoute, __D0testRoute
2	36	68	#line 36 "C:\Users\stan\Desktop\Lund\LegoRobotRuzzle\Opencv_WebCa\NXT\Working_with_bluetooth - Copie.nxc"
2	40	68	#line 40 "C:\Users\stan\Desktop\Lund\LegoRobotRuzzle\Opencv_WebCa\NXT\Working_with_bluetooth - Copie.nxc"
2	41	68		jmp __ASM_Label_609
2	40	70	#line 40 "C:\Users\stan\Desktop\Lund\LegoRobotRuzzle\Opencv_WebCa\NXT\Working_with_bluetooth - Copie.nxc"
2	40	70	#line 40 "C:\Users\stan\Desktop\Lund\LegoRobotRuzzle\Opencv_WebCa\NXT\Working_with_bluetooth - Copie.nxc"
2	41	70		subret __testRoute_return
3	41	0	#line 41 "C:\Users\stan\Desktop\Lund\LegoRobotRuzzle\Opencv_WebCa\NXT\Working_with_bluetooth - Copie.nxc"
3	42	0		mov __PosRegSetAngle_7qG2_output_7qG2_000_inline_rotateMotorToDegree, __rotateMotorToDegree_7qG2_motor_7qG2_000
3	41	2	#line 41 "C:\Users\stan\Desktop\Lund\LegoRobotRuzzle\Opencv_WebCa\NXT\Working_with_bluetooth - Copie.nxc"
3	41	2	#line 41 "C:\Users\stan\Desktop\Lund\LegoRobotRuzzle\Opencv_WebCa\NXT\Working_with_bluetooth - Copie.nxc"
3	42	2		mov __PosRegSetAngle_7qG2_angle_7qG2_000_inline_rotateMotorToDegree, __rotateMotorToDegree_7qG2_degree_7qG2_000
3	41	4	#line 41 "C:\Users\stan\Desktop\Lund\LegoRobotRuzzle\Opencv_WebCa\NXT\Working_with_bluetooth - Copie.nxc"
3	20915	4	#line 20915 "NXCDefs.h"
3	20916	4		mov __signed_stack_001PosRegSetAngle_inline_rotateMotorToDegree, __PosRegSetAngle_7qG2_angle_7qG2_000_inline_rotateMotorToDegree
3	20915	6	#line 20915 "NXCDefs.h"
3	20915	6	#line 20915 "NXCDefs.h"
3	20916	6		set __D0PosRegSetAngle_inline_rotateMotorToDegree, 4
3	20916	9	#line 20916 "NXCDefs.h"
3	20916	9	#line 20916 "NXCDefs.h"
3	20917	9		setout __PosRegSetAngle_7qG2_output_7qG2_000_inline_rotateMotorToDegree, 5, __signed_stack_001PosRegSetAngle_inline_rotateMotorToDegree, 0, __D0PosRegSetAngle_inline_rotateMotorToDegree
3	20916	16	#line 20916 "NXCDefs.h"
3	20916	16	#line 20916 "NXCDefs.h"
3	20916	16	#line 20916 "NXCDefs.h"
3	20916	16	#line 20916 "NXCDefs.h"
3	20916	16	#line 20916 "NXCDefs.h"
3	20916	16	#line 20916 "NXCDefs.h"
3	42	16	#line 42 "C:\Users\stan\Desktop\Lund\LegoRobotRuzzle\Opencv_WebCa\NXT\Working_with_bluetooth - Copie.nxc"
3	42	16	#line 42 "C:\Users\stan\Desktop\Lund\LegoRobotRuzzle\Opencv_WebCa\NXT\Working_with_bluetooth - Copie.nxc"
3	43	16		getout __signed_stack_001rotateMotorToDegree, __rotateMotorToDegree_7qG2_motor_7qG2_000, 4
3	42	20	#line 42 "C:\Users\stan\Desktop\Lund\LegoRobotRuzzle\Opencv_WebCa\NXT\Working_with_bluetooth - Copie.nxc"
3	42	20	#line 42 "C:\Users\stan\Desktop\Lund\LegoRobotRuzzle\Opencv_WebCa\NXT\Working_with_bluetooth - Copie.nxc"
3	43	20		mov __D0rotateMotorToDegree, __rotateMotorToDegree_7qG2_degree_7qG2_000
3	42	22	#line 42 "C:\Users\stan\Desktop\Lund\LegoRobotRuzzle\Opencv_WebCa\NXT\Working_with_bluetooth - Copie.nxc"
3	43	22		cmp 5, __D0rotateMotorToDegree, __signed_stack_001rotateMotorToDegree, __D0rotateMotorToDegree
3	43	26	#line 43 "C:\Users\stan\Desktop\Lund\LegoRobotRuzzle\Opencv_WebCa\NXT\Working_with_bluetooth - Copie.nxc"
3	44	26		brtst 4, __ASM_Label_627, __D0rotateMotorToDegree
3	43	29	#line 43 "C:\Users\stan\Desktop\Lund\LegoRobotRuzzle\Opencv_WebCa\NXT\Working_with_bluetooth - Copie.nxc"
3	44	29		set __Wait_7qG2_ms_7qG2_000_inline_rotateMotorToDegree, 1
3	43	32	#line 43 "C:\Users\stan\Desktop\Lund\LegoRobotRuzzle\Opencv_WebCa\NXT\Working_with_bluetooth - Copie.nxc"
3	8551	32	#line 8551 "NXCDefs.h"
3	8552	32		waitv __Wait_7qG2_ms_7qG2_000_inline_rotateMotorToDegree
3	8551	34	#line 8551 "NXCDefs.h"
3	44	34	#line 44 "C:\Users\stan\Desktop\Lund\LegoRobotRuzzle\Opencv_WebCa\NXT\Working_with_bluetooth - Copie.nxc"
3	47	34	#line 47 "C:\Users\stan\Desktop\Lund\LegoRobotRuzzle\Opencv_WebCa\NXT\Working_with_bluetooth - Copie.nxc"
3	48	34		jmp __ASM_Label_626
3	47	36	#line 47 "C:\Users\stan\Desktop\Lund\LegoRobotRuzzle\Opencv_WebCa\NXT\Working_with_bluetooth - Copie.nxc"
3	47	36	#line 47 "C:\Users\stan\Desktop\Lund\LegoRobotRuzzle\Opencv_WebCa\NXT\Working_with_bluetooth - Copie.nxc"
3	48	36		subret __rotateMotorToDegree_return
4	50	0	#line 50 "C:\Users\stan\Desktop\Lund\LegoRobotRuzzle\Opencv_WebCa\NXT\Working_with_bluetooth - Copie.nxc"
4	51	0		set __checkMessage_7qG2_checkPath_7qG2_000, 0
4	50	3	#line 50 "C:\Users\stan\Desktop\Lund\LegoRobotRuzzle\Opencv_WebCa\NXT\Working_with_bluetooth - Copie.nxc"
4	51	3	#line 51 "C:\Users\stan\Desktop\Lund\LegoRobotRuzzle\Opencv_WebCa\NXT\Working_with_bluetooth - Copie.nxc"
4	52	3		set __checkMessage_7qG2_checkInformation_7qG2_000, 0
4	51	6	#line 51 "C:\Users\stan\Desktop\Lund\LegoRobotRuzzle\Opencv_WebCa\NXT\Working_with_bluetooth - Copie.nxc"
4	53	6	#line 53 "C:\Users\stan\Desktop\Lund\LegoRobotRuzzle\Opencv_WebCa\NXT\Working_with_bluetooth - Copie.nxc"
4	54	6		strcat __strbufcheckMessage, __constStr0009
4	53	10	#line 53 "C:\Users\stan\Desktop\Lund\LegoRobotRuzzle\Opencv_WebCa\NXT\Working_with_bluetooth - Copie.nxc"
4	54	10		mov __checkMessage_7qG2_buffer1_7qG2_000, __strbufcheckMessage
4	53	12	#line 53 "C:\Users\stan\Desktop\Lund\LegoRobotRuzzle\Opencv_WebCa\NXT\Working_with_bluetooth - Copie.nxc"
4	54	12	#line 54 "C:\Users\stan\Desktop\Lund\LegoRobotRuzzle\Opencv_WebCa\NXT\Working_with_bluetooth - Copie.nxc"
4	55	12	#pragma macro 7
4	55	12		mov __MRArgs.QueueID, INBOX
4	55	14		mov __MRArgs.Remove, __constVal1
4	55	16		syscall 27, __MRArgs
4	55	19		mov __checkMessage_7qG2_buffer_7qG2_000, __MRArgs.Message
4	55	21		mov __checkMessage_7qG2_result_7qG2_001, __MRArgs.Result
4	7253	23	#line 7253 "C:\Users\stan\Desktop\Lund\LegoRobotRuzzle\Opencv_WebCa\NXT\Working_with_bluetooth - Copie.nxc"
4	54	23	#line 54 "C:\Users\stan\Desktop\Lund\LegoRobotRuzzle\Opencv_WebCa\NXT\Working_with_bluetooth - Copie.nxc"
4	55	23	#line 55 "C:\Users\stan\Desktop\Lund\LegoRobotRuzzle\Opencv_WebCa\NXT\Working_with_bluetooth - Copie.nxc"
4	56	23		mov __signed_stack_001checkMessage, __MRArgs.Result
4	55	25	#line 55 "C:\Users\stan\Desktop\Lund\LegoRobotRuzzle\Opencv_WebCa\NXT\Working_with_bluetooth - Copie.nxc"
4	55	25	#line 55 "C:\Users\stan\Desktop\Lund\LegoRobotRuzzle\Opencv_WebCa\NXT\Working_with_bluetooth - Copie.nxc"
4	56	25		set __D0checkMessage, 0
4	55	28	#line 55 "C:\Users\stan\Desktop\Lund\LegoRobotRuzzle\Opencv_WebCa\NXT\Working_with_bluetooth - Copie.nxc"
4	56	28		cmp 4, __D0checkMessage, __signed_stack_001checkMessage, __D0checkMessage
4	56	32	#line 56 "C:\Users\stan\Desktop\Lund\LegoRobotRuzzle\Opencv_WebCa\NXT\Working_with_bluetooth - Copie.nxc"
4	57	32		brtst 4, __ASM_Label_642, __D0checkMessage
4	56	35	#line 56 "C:\Users\stan\Desktop\Lund\LegoRobotRuzzle\Opencv_WebCa\NXT\Working_with_bluetooth - Copie.nxc"
4	57	35		mov __DU0checkMessage, __checkMessage_7qG2_checkPath_7qG2_000
4	57	37	#line 57 "C:\Users\stan\Desktop\Lund\LegoRobotRuzzle\Opencv_WebCa\NXT\Working_with_bluetooth - Copie.nxc"
4	58	37		tst 5, __D0checkMessage, __DU0checkMessage
4	57	40	#line 57 "C:\Users\stan\Desktop\Lund\LegoRobotRuzzle\Opencv_WebCa\NXT\Working_with_bluetooth - Copie.nxc"
4	58	40		brtst 4, __ASM_Label_645, __D0checkMessage
4	57	43	#line 57 "C:\Users\stan\Desktop\Lund\LegoRobotRuzzle\Opencv_WebCa\NXT\Working_with_bluetooth - Copie.nxc"
4	58	43		strcat __strbufcheckMessage, __checkMessage_7qG2_buffer1_7qG2_000
4	57	47	#line 57 "C:\Users\stan\Desktop\Lund\LegoRobotRuzzle\Opencv_WebCa\NXT\Working_with_bluetooth - Copie.nxc"
4	58	47		mov __ArrHelper__checkMessage_244_0, __strbufcheckMessage
4	57	49	#line 57 "C:\Users\stan\Desktop\Lund\LegoRobotRuzzle\Opencv_WebCa\NXT\Working_with_bluetooth - Copie.nxc"
4	58	49		strcat __strbufcheckMessage, __checkMessage_7qG2_buffer_7qG2_000
4	57	53	#line 57 "C:\Users\stan\Desktop\Lund\LegoRobotRuzzle\Opencv_WebCa\NXT\Working_with_bluetooth - Copie.nxc"
4	58	53		mov __ArrHelper__checkMessage_244_1, __strbufcheckMessage
4	58	55	#line 58 "C:\Users\stan\Desktop\Lund\LegoRobotRuzzle\Opencv_WebCa\NXT\Working_with_bluetooth - Copie.nxc"
4	59	55		strcat __strretvalcheckMessage, __ArrHelper__checkMessage_244_0, __ArrHelper__checkMessage_244_1
4	58	60	#line 58 "C:\Users\stan\Desktop\Lund\LegoRobotRuzzle\Opencv_WebCa\NXT\Working_with_bluetooth - Copie.nxc"
4	59	60		strcat __strbufcheckMessage, __strretvalcheckMessage
4	58	64	#line 58 "C:\Users\stan\Desktop\Lund\LegoRobotRuzzle\Opencv_WebCa\NXT\Working_with_bluetooth - Copie.nxc"
4	59	64		mov __checkMessage_7qG2_buffer1_7qG2_000, __strbufcheckMessage
4	58	66	#line 58 "C:\Users\stan\Desktop\Lund\LegoRobotRuzzle\Opencv_WebCa\NXT\Working_with_bluetooth - Copie.nxc"
4	59	66	#line 59 "C:\Users\stan\Desktop\Lund\LegoRobotRuzzle\Opencv_WebCa\NXT\Working_with_bluetooth - Copie.nxc"
4	59	66	#line 59 "C:\Users\stan\Desktop\Lund\LegoRobotRuzzle\Opencv_WebCa\NXT\Working_with_bluetooth - Copie.nxc"
4	60	66		mov __DU0checkMessage, __checkMessage_7qG2_checkInformation_7qG2_000
4	61	68	#line 61 "C:\Users\stan\Desktop\Lund\LegoRobotRuzzle\Opencv_WebCa\NXT\Working_with_bluetooth - Copie.nxc"
4	62	68		tst 5, __D0checkMessage, __DU0checkMessage
4	61	71	#line 61 "C:\Users\stan\Desktop\Lund\LegoRobotRuzzle\Opencv_WebCa\NXT\Working_with_bluetooth - Copie.nxc"
4	62	71	#line 62 "C:\Users\stan\Desktop\Lund\LegoRobotRuzzle\Opencv_WebCa\NXT\Working_with_bluetooth - Copie.nxc"
4	62	71	#line 62 "C:\Users\stan\Desktop\Lund\LegoRobotRuzzle\Opencv_WebCa\NXT\Working_with_bluetooth - Copie.nxc"
4	63	71		strcat __strbufcheckMessage, __checkMessage_7qG2_buffer_7qG2_000
4	62	75	#line 62 "C:\Users\stan\Desktop\Lund\LegoRobotRuzzle\Opencv_WebCa\NXT\Working_with_bluetooth - Copie.nxc"
4	63	75		mov __strtmpbufcheckMessage, __strbufcheckMessage
4	62	77	#line 62 "C:\Users\stan\Desktop\Lund\LegoRobotRuzzle\Opencv_WebCa\NXT\Working_with_bluetooth - Copie.nxc"
4	63	77		strcat __strbufcheckMessage, __constStr0010
4	62	81	#line 62 "C:\Users\stan\Desktop\Lund\LegoRobotRuzzle\Opencv_WebCa\NXT\Working_with_bluetooth - Copie.nxc"
4	63	81		cmp 4, __D0checkMessage, __strtmpbufcheckMessage, __strbufcheckMessage
4	63	85	#line 63 "C:\Users\stan\Desktop\Lund\LegoRobotRuzzle\Opencv_WebCa\NXT\Working_with_bluetooth - Copie.nxc"
4	64	85		brtst 4, __ASM_Label_651, __D0checkMessage
4	63	88	#line 63 "C:\Users\stan\Desktop\Lund\LegoRobotRuzzle\Opencv_WebCa\NXT\Working_with_bluetooth - Copie.nxc"
4	64	88		set __signed_stack_001checkMessage, 0
4	63	91	#line 63 "C:\Users\stan\Desktop\Lund\LegoRobotRuzzle\Opencv_WebCa\NXT\Working_with_bluetooth - Copie.nxc"
4	63	91	#line 63 "C:\Users\stan\Desktop\Lund\LegoRobotRuzzle\Opencv_WebCa\NXT\Working_with_bluetooth - Copie.nxc"
4	64	91		set __signed_stack_002checkMessage, 40
4	63	94	#line 63 "C:\Users\stan\Desktop\Lund\LegoRobotRuzzle\Opencv_WebCa\NXT\Working_with_bluetooth - Copie.nxc"
4	63	94	#line 63 "C:\Users\stan\Desktop\Lund\LegoRobotRuzzle\Opencv_WebCa\NXT\Working_with_bluetooth - Copie.nxc"
4	64	94		strcat __strbufcheckMessage, __constStr0011
4	64	98	#line 64 "C:\Users\stan\Desktop\Lund\LegoRobotRuzzle\Opencv_WebCa\NXT\Working_with_bluetooth - Copie.nxc"
4	64	98	#line 64 "C:\Users\stan\Desktop\Lund\LegoRobotRuzzle\Opencv_WebCa\NXT\Working_with_bluetooth - Copie.nxc"
4	65	98		mov __TextOutArgs.Location.X, __signed_stack_001checkMessage
4	64	100	#line 64 "C:\Users\stan\Desktop\Lund\LegoRobotRuzzle\Opencv_WebCa\NXT\Working_with_bluetooth - Copie.nxc"
4	65	100		mov __TextOutArgs.Location.Y, __signed_stack_002checkMessage
4	64	102	#line 64 "C:\Users\stan\Desktop\Lund\LegoRobotRuzzle\Opencv_WebCa\NXT\Working_with_bluetooth - Copie.nxc"
4	65	102		set __TextOutArgs.Options, 0
4	64	105	#line 64 "C:\Users\stan\Desktop\Lund\LegoRobotRuzzle\Opencv_WebCa\NXT\Working_with_bluetooth - Copie.nxc"
4	65	105		mov __TextOutArgs.Text, __strbufcheckMessage
4	64	107	#line 64 "C:\Users\stan\Desktop\Lund\LegoRobotRuzzle\Opencv_WebCa\NXT\Working_with_bluetooth - Copie.nxc"
4	65	107		syscall 13, __TextOutArgs
4	64	110	#line 64 "C:\Users\stan\Desktop\Lund\LegoRobotRuzzle\Opencv_WebCa\NXT\Working_with_bluetooth - Copie.nxc"
4	65	110		mov __D0checkMessage, __TextOutArgs.Result
4	64	112	#line 64 "C:\Users\stan\Desktop\Lund\LegoRobotRuzzle\Opencv_WebCa\NXT\Working_with_bluetooth - Copie.nxc"
4	64	112	#line 64 "C:\Users\stan\Desktop\Lund\LegoRobotRuzzle\Opencv_WebCa\NXT\Working_with_bluetooth - Copie.nxc"
4	65	112	#line 65 "C:\Users\stan\Desktop\Lund\LegoRobotRuzzle\Opencv_WebCa\NXT\Working_with_bluetooth - Copie.nxc"
4	66	112		set __checkMessage_7qG2_checkPath_7qG2_000, 1
4	65	115	#line 65 "C:\Users\stan\Desktop\Lund\LegoRobotRuzzle\Opencv_WebCa\NXT\Working_with_bluetooth - Copie.nxc"
4	65	115	#line 65 "C:\Users\stan\Desktop\Lund\LegoRobotRuzzle\Opencv_WebCa\NXT\Working_with_bluetooth - Copie.nxc"
4	66	115	#line 66 "C:\Users\stan\Desktop\Lund\LegoRobotRuzzle\Opencv_WebCa\NXT\Working_with_bluetooth - Copie.nxc"
4	67	115		set newRoute, 1
4	66	118	#line 66 "C:\Users\stan\Desktop\Lund\LegoRobotRuzzle\Opencv_WebCa\NXT\Working_with_bluetooth - Copie.nxc"
4	66	118	#line 66 "C:\Users\stan\Desktop\Lund\LegoRobotRuzzle\Opencv_WebCa\NXT\Working_with_bluetooth - Copie.nxc"
4	66	118	#line 66 "C:\Users\stan\Desktop\Lund\LegoRobotRuzzle\Opencv_WebCa\NXT\Working_with_bluetooth - Copie.nxc"
4	67	118	#pragma macro 6
4	67	118		mov __MWArgs.QueueID, OUTBOX
4	67	120		mov __MWArgs.Message, __constStr0012
4	67	122		syscall 26, __MWArgs
4	67	125		mov __D0checkMessage, __MWArgs.Result
4	7365	127	#line 7365 "C:\Users\stan\Desktop\Lund\LegoRobotRuzzle\Opencv_WebCa\NXT\Working_with_bluetooth - Copie.nxc"
4	66	127	#line 66 "C:\Users\stan\Desktop\Lund\LegoRobotRuzzle\Opencv_WebCa\NXT\Working_with_bluetooth - Copie.nxc"
4	66	127	#line 66 "C:\Users\stan\Desktop\Lund\LegoRobotRuzzle\Opencv_WebCa\NXT\Working_with_bluetooth - Copie.nxc"
4	67	127	#line 67 "C:\Users\stan\Desktop\Lund\LegoRobotRuzzle\Opencv_WebCa\NXT\Working_with_bluetooth - Copie.nxc"
4	68	127		set __ClearLine_7qG2_line_7qG2_000_inline_checkMessage, 56
4	67	130	#line 67 "C:\Users\stan\Desktop\Lund\LegoRobotRuzzle\Opencv_WebCa\NXT\Working_with_bluetooth - Copie.nxc"
4	6685	130	#line 6685 "NXCDefs.h"
4	6686	130	#pragma macro 7
4	6686	130		mov __TextOutArgs.Location.X, __constVal0
4	6686	132		mov __TextOutArgs.Location.Y, __ClearLine_7qG2_line_7qG2_000_inline_checkMessage
4	6686	134		mov __TextOutArgs.Options, __constVal0
4	6686	136		mov __TextOutArgs.Text, __BlankLine
4	6686	138		syscall 13, __TextOutArgs
4	7377	141	#line 7377 "NXCDefs.h"
4	6685	141	#line 6685 "NXCDefs.h"
4	69	141	#line 69 "C:\Users\stan\Desktop\Lund\LegoRobotRuzzle\Opencv_WebCa\NXT\Working_with_bluetooth - Copie.nxc"
4	70	141	#line 70 "C:\Users\stan\Desktop\Lund\LegoRobotRuzzle\Opencv_WebCa\NXT\Working_with_bluetooth - Copie.nxc"
4	71	141		jmp __ASM_Label_662
4	70	143	#line 70 "C:\Users\stan\Desktop\Lund\LegoRobotRuzzle\Opencv_WebCa\NXT\Working_with_bluetooth - Copie.nxc"
4	71	143		strcat __strbufcheckMessage, __checkMessage_7qG2_buffer_7qG2_000
4	70	147	#line 70 "C:\Users\stan\Desktop\Lund\LegoRobotRuzzle\Opencv_WebCa\NXT\Working_with_bluetooth - Copie.nxc"
4	71	147		mov __strtmpbufcheckMessage, __strbufcheckMessage
4	70	149	#line 70 "C:\Users\stan\Desktop\Lund\LegoRobotRuzzle\Opencv_WebCa\NXT\Working_with_bluetooth - Copie.nxc"
4	71	149		strcat __strbufcheckMessage, __constStr0013
4	70	153	#line 70 "C:\Users\stan\Desktop\Lund\LegoRobotRuzzle\Opencv_WebCa\NXT\Working_with_bluetooth - Copie.nxc"
4	71	153		cmp 4, __D0checkMessage, __strtmpbufcheckMessage, __strbufcheckMessage
4	71	157	#line 71 "C:\Users\stan\Desktop\Lund\LegoRobotRuzzle\Opencv_WebCa\NXT\Working_with_bluetooth - Copie.nxc"
4	72	157		brtst 4, __ASM_Label_665, __D0checkMessage
4	71	160	#line 71 "C:\Users\stan\Desktop\Lund\LegoRobotRuzzle\Opencv_WebCa\NXT\Working_with_bluetooth - Copie.nxc"
4	72	160		set __rotateMotorToDegree_7qG2_motor_7qG2_000, 0
4	71	163	#line 71 "C:\Users\stan\Desktop\Lund\LegoRobotRuzzle\Opencv_WebCa\NXT\Working_with_bluetooth - Copie.nxc"
4	71	163	#line 71 "C:\Users\stan\Desktop\Lund\LegoRobotRuzzle\Opencv_WebCa\NXT\Working_with_bluetooth - Copie.nxc"
4	72	163		mov __rotateMotorToDegree_7qG2_degree_7qG2_000, __constValNeg410
4	71	165	#line 71 "C:\Users\stan\Desktop\Lund\LegoRobotRuzzle\Opencv_WebCa\NXT\Working_with_bluetooth - Copie.nxc"
4	73	165	#line 73 "C:\Users\stan\Desktop\Lund\LegoRobotRuzzle\Opencv_WebCa\NXT\Working_with_bluetooth - Copie.nxc"
4	74	165		subcall rotateMotorToDegree, __rotateMotorToDegree_return
4	73	167	#line 73 "C:\Users\stan\Desktop\Lund\LegoRobotRuzzle\Opencv_WebCa\NXT\Working_with_bluetooth - Copie.nxc"
4	74	167	#line 74 "C:\Users\stan\Desktop\Lund\LegoRobotRuzzle\Opencv_WebCa\NXT\Working_with_bluetooth - Copie.nxc"
4	75	167		set startTimer, 1
4	74	170	#line 74 "C:\Users\stan\Desktop\Lund\LegoRobotRuzzle\Opencv_WebCa\NXT\Working_with_bluetooth - Copie.nxc"
4	74	170	#line 74 "C:\Users\stan\Desktop\Lund\LegoRobotRuzzle\Opencv_WebCa\NXT\Working_with_bluetooth - Copie.nxc"
4	74	170	#line 74 "C:\Users\stan\Desktop\Lund\LegoRobotRuzzle\Opencv_WebCa\NXT\Working_with_bluetooth - Copie.nxc"
4	75	170		gettick startTime
4	74	172	#line 74 "C:\Users\stan\Desktop\Lund\LegoRobotRuzzle\Opencv_WebCa\NXT\Working_with_bluetooth - Copie.nxc"
4	74	172	#line 74 "C:\Users\stan\Desktop\Lund\LegoRobotRuzzle\Opencv_WebCa\NXT\Working_with_bluetooth - Copie.nxc"
4	74	172	#line 74 "C:\Users\stan\Desktop\Lund\LegoRobotRuzzle\Opencv_WebCa\NXT\Working_with_bluetooth - Copie.nxc"
4	76	172	#line 76 "C:\Users\stan\Desktop\Lund\LegoRobotRuzzle\Opencv_WebCa\NXT\Working_with_bluetooth - Copie.nxc"
4	77	172		jmp __ASM_Label_674
4	76	174	#line 76 "C:\Users\stan\Desktop\Lund\LegoRobotRuzzle\Opencv_WebCa\NXT\Working_with_bluetooth - Copie.nxc"
4	77	174		strcat __strbufcheckMessage, __checkMessage_7qG2_buffer_7qG2_000
4	76	178	#line 76 "C:\Users\stan\Desktop\Lund\LegoRobotRuzzle\Opencv_WebCa\NXT\Working_with_bluetooth - Copie.nxc"
4	77	178		mov __strtmpbufcheckMessage, __strbufcheckMessage
4	76	180	#line 76 "C:\Users\stan\Desktop\Lund\LegoRobotRuzzle\Opencv_WebCa\NXT\Working_with_bluetooth - Copie.nxc"
4	77	180		strcat __strbufcheckMessage, __constStr0014
4	76	184	#line 76 "C:\Users\stan\Desktop\Lund\LegoRobotRuzzle\Opencv_WebCa\NXT\Working_with_bluetooth - Copie.nxc"
4	77	184		cmp 4, __D0checkMessage, __strtmpbufcheckMessage, __strbufcheckMessage
4	77	188	#line 77 "C:\Users\stan\Desktop\Lund\LegoRobotRuzzle\Opencv_WebCa\NXT\Working_with_bluetooth - Copie.nxc"
4	78	188		brtst 4, __ASM_Label_677, __D0checkMessage
4	77	191	#line 77 "C:\Users\stan\Desktop\Lund\LegoRobotRuzzle\Opencv_WebCa\NXT\Working_with_bluetooth - Copie.nxc"
4	78	191		set __rotateMotorToDegree_7qG2_motor_7qG2_000, 0
4	77	194	#line 77 "C:\Users\stan\Desktop\Lund\LegoRobotRuzzle\Opencv_WebCa\NXT\Working_with_bluetooth - Copie.nxc"
4	77	194	#line 77 "C:\Users\stan\Desktop\Lund\LegoRobotRuzzle\Opencv_WebCa\NXT\Working_with_bluetooth - Copie.nxc"
4	78	194		set __rotateMotorToDegree_7qG2_degree_7qG2_000, 0
4	77	197	#line 77 "C:\Users\stan\Desktop\Lund\LegoRobotRuzzle\Opencv_WebCa\NXT\Working_with_bluetooth - Copie.nxc"
4	79	197	#line 79 "C:\Users\stan\Desktop\Lund\LegoRobotRuzzle\Opencv_WebCa\NXT\Working_with_bluetooth - Copie.nxc"
4	80	197		subcall rotateMotorToDegree, __rotateMotorToDegree_return
4	79	199	#line 79 "C:\Users\stan\Desktop\Lund\LegoRobotRuzzle\Opencv_WebCa\NXT\Working_with_bluetooth - Copie.nxc"
4	80	199	#line 80 "C:\Users\stan\Desktop\Lund\LegoRobotRuzzle\Opencv_WebCa\NXT\Working_with_bluetooth - Copie.nxc"
4	81	199		set __checkMessage_7qG2_result_7qG2_001, 1
4	80	202	#line 80 "C:\Users\stan\Desktop\Lund\LegoRobotRuzzle\Opencv_WebCa\NXT\Working_with_bluetooth - Copie.nxc"
4	80	202	#line 80 "C:\Users\stan\Desktop\Lund\LegoRobotRuzzle\Opencv_WebCa\NXT\Working_with_bluetooth - Copie.nxc"
4	80	202	#line 80 "C:\Users\stan\Desktop\Lund\LegoRobotRuzzle\Opencv_WebCa\NXT\Working_with_bluetooth - Copie.nxc"
4	81	202		set __signed_stack_001checkMessage, 0
4	80	205	#line 80 "C:\Users\stan\Desktop\Lund\LegoRobotRuzzle\Opencv_WebCa\NXT\Working_with_bluetooth - Copie.nxc"
4	80	205	#line 80 "C:\Users\stan\Desktop\Lund\LegoRobotRuzzle\Opencv_WebCa\NXT\Working_with_bluetooth - Copie.nxc"
4	81	205		set __signed_stack_002checkMessage, 24
4	80	208	#line 80 "C:\Users\stan\Desktop\Lund\LegoRobotRuzzle\Opencv_WebCa\NXT\Working_with_bluetooth - Copie.nxc"
4	80	208	#line 80 "C:\Users\stan\Desktop\Lund\LegoRobotRuzzle\Opencv_WebCa\NXT\Working_with_bluetooth - Copie.nxc"
4	81	208		strcat __strbufcheckMessage, __constStr0015
4	81	212	#line 81 "C:\Users\stan\Desktop\Lund\LegoRobotRuzzle\Opencv_WebCa\NXT\Working_with_bluetooth - Copie.nxc"
4	81	212	#line 81 "C:\Users\stan\Desktop\Lund\LegoRobotRuzzle\Opencv_WebCa\NXT\Working_with_bluetooth - Copie.nxc"
4	82	212		mov __TextOutArgs.Location.X, __signed_stack_001checkMessage
4	81	214	#line 81 "C:\Users\stan\Desktop\Lund\LegoRobotRuzzle\Opencv_WebCa\NXT\Working_with_bluetooth - Copie.nxc"
4	82	214		mov __TextOutArgs.Location.Y, __signed_stack_002checkMessage
4	81	216	#line 81 "C:\Users\stan\Desktop\Lund\LegoRobotRuzzle\Opencv_WebCa\NXT\Working_with_bluetooth - Copie.nxc"
4	82	216		set __TextOutArgs.Options, 0
4	81	219	#line 81 "C:\Users\stan\Desktop\Lund\LegoRobotRuzzle\Opencv_WebCa\NXT\Working_with_bluetooth - Copie.nxc"
4	82	219		mov __TextOutArgs.Text, __strbufcheckMessage
4	81	221	#line 81 "C:\Users\stan\Desktop\Lund\LegoRobotRuzzle\Opencv_WebCa\NXT\Working_with_bluetooth - Copie.nxc"
4	82	221		syscall 13, __TextOutArgs
4	81	224	#line 81 "C:\Users\stan\Desktop\Lund\LegoRobotRuzzle\Opencv_WebCa\NXT\Working_with_bluetooth - Copie.nxc"
4	82	224		mov __D0checkMessage, __TextOutArgs.Result
4	81	226	#line 81 "C:\Users\stan\Desktop\Lund\LegoRobotRuzzle\Opencv_WebCa\NXT\Working_with_bluetooth - Copie.nxc"
4	81	226	#line 81 "C:\Users\stan\Desktop\Lund\LegoRobotRuzzle\Opencv_WebCa\NXT\Working_with_bluetooth - Copie.nxc"
4	81	226	#line 81 "C:\Users\stan\Desktop\Lund\LegoRobotRuzzle\Opencv_WebCa\NXT\Working_with_bluetooth - Copie.nxc"
4	82	226		mov __signed_stack_001checkMessage, __checkMessage_7qG2_result_7qG2_001
4	81	228	#line 81 "C:\Users\stan\Desktop\Lund\LegoRobotRuzzle\Opencv_WebCa\NXT\Working_with_bluetooth - Copie.nxc"
4	81	228	#line 81 "C:\Users\stan\Desktop\Lund\LegoRobotRuzzle\Opencv_WebCa\NXT\Working_with_bluetooth - Copie.nxc"
4	82	228		set __D0checkMessage, 0
4	81	231	#line 81 "C:\Users\stan\Desktop\Lund\LegoRobotRuzzle\Opencv_WebCa\NXT\Working_with_bluetooth - Copie.nxc"
4	82	231		cmp 5, __D0checkMessage, __signed_stack_001checkMessage, __D0checkMessage
4	82	235	#line 82 "C:\Users\stan\Desktop\Lund\LegoRobotRuzzle\Opencv_WebCa\NXT\Working_with_bluetooth - Copie.nxc"
4	83	235		brtst 4, __ASM_Label_689, __D0checkMessage
4	82	238	#line 82 "C:\Users\stan\Desktop\Lund\LegoRobotRuzzle\Opencv_WebCa\NXT\Working_with_bluetooth - Copie.nxc"
4	83	238	#pragma macro 7
4	83	238		mov __MRArgs.QueueID, INBOX
4	83	240		mov __MRArgs.Remove, __constVal1
4	83	242		syscall 27, __MRArgs
4	83	245		mov __checkMessage_7qG2_buffer_7qG2_000, __MRArgs.Message
4	83	247		mov __checkMessage_7qG2_result_7qG2_001, __MRArgs.Result
4	7497	249	#line 7497 "C:\Users\stan\Desktop\Lund\LegoRobotRuzzle\Opencv_WebCa\NXT\Working_with_bluetooth - Copie.nxc"
4	82	249	#line 82 "C:\Users\stan\Desktop\Lund\LegoRobotRuzzle\Opencv_WebCa\NXT\Working_with_bluetooth - Copie.nxc"
4	82	249	#line 82 "C:\Users\stan\Desktop\Lund\LegoRobotRuzzle\Opencv_WebCa\NXT\Working_with_bluetooth - Copie.nxc"
4	82	249	#line 82 "C:\Users\stan\Desktop\Lund\LegoRobotRuzzle\Opencv_WebCa\NXT\Working_with_bluetooth - Copie.nxc"
4	84	249	#line 84 "C:\Users\stan\Desktop\Lund\LegoRobotRuzzle\Opencv_WebCa\NXT\Working_with_bluetooth - Copie.nxc"
4	85	249		jmp __ASM_Label_688
4	84	251	#line 84 "C:\Users\stan\Desktop\Lund\LegoRobotRuzzle\Opencv_WebCa\NXT\Working_with_bluetooth - Copie.nxc"
4	84	251	#line 84 "C:\Users\stan\Desktop\Lund\LegoRobotRuzzle\Opencv_WebCa\NXT\Working_with_bluetooth - Copie.nxc"
4	85	251		set __signed_stack_001checkMessage, 0
4	84	254	#line 84 "C:\Users\stan\Desktop\Lund\LegoRobotRuzzle\Opencv_WebCa\NXT\Working_with_bluetooth - Copie.nxc"
4	84	254	#line 84 "C:\Users\stan\Desktop\Lund\LegoRobotRuzzle\Opencv_WebCa\NXT\Working_with_bluetooth - Copie.nxc"
4	85	254		set __signed_stack_002checkMessage, 24
4	84	257	#line 84 "C:\Users\stan\Desktop\Lund\LegoRobotRuzzle\Opencv_WebCa\NXT\Working_with_bluetooth - Copie.nxc"
4	84	257	#line 84 "C:\Users\stan\Desktop\Lund\LegoRobotRuzzle\Opencv_WebCa\NXT\Working_with_bluetooth - Copie.nxc"
4	85	257		strcat __strbufcheckMessage, __checkMessage_7qG2_buffer_7qG2_000
4	85	261	#line 85 "C:\Users\stan\Desktop\Lund\LegoRobotRuzzle\Opencv_WebCa\NXT\Working_with_bluetooth - Copie.nxc"
4	85	261	#line 85 "C:\Users\stan\Desktop\Lund\LegoRobotRuzzle\Opencv_WebCa\NXT\Working_with_bluetooth - Copie.nxc"
4	86	261		mov __TextOutArgs.Location.X, __signed_stack_001checkMessage
4	85	263	#line 85 "C:\Users\stan\Desktop\Lund\LegoRobotRuzzle\Opencv_WebCa\NXT\Working_with_bluetooth - Copie.nxc"
4	86	263		mov __TextOutArgs.Location.Y, __signed_stack_002checkMessage
4	85	265	#line 85 "C:\Users\stan\Desktop\Lund\LegoRobotRuzzle\Opencv_WebCa\NXT\Working_with_bluetooth - Copie.nxc"
4	86	265		set __TextOutArgs.Options, 0
4	85	268	#line 85 "C:\Users\stan\Desktop\Lund\LegoRobotRuzzle\Opencv_WebCa\NXT\Working_with_bluetooth - Copie.nxc"
4	86	268		mov __TextOutArgs.Text, __strbufcheckMessage
4	85	270	#line 85 "C:\Users\stan\Desktop\Lund\LegoRobotRuzzle\Opencv_WebCa\NXT\Working_with_bluetooth - Copie.nxc"
4	86	270		syscall 13, __TextOutArgs
4	85	273	#line 85 "C:\Users\stan\Desktop\Lund\LegoRobotRuzzle\Opencv_WebCa\NXT\Working_with_bluetooth - Copie.nxc"
4	86	273		mov __D0checkMessage, __TextOutArgs.Result
4	85	275	#line 85 "C:\Users\stan\Desktop\Lund\LegoRobotRuzzle\Opencv_WebCa\NXT\Working_with_bluetooth - Copie.nxc"
4	85	275	#line 85 "C:\Users\stan\Desktop\Lund\LegoRobotRuzzle\Opencv_WebCa\NXT\Working_with_bluetooth - Copie.nxc"
4	86	275	#line 86 "C:\Users\stan\Desktop\Lund\LegoRobotRuzzle\Opencv_WebCa\NXT\Working_with_bluetooth - Copie.nxc"
4	87	275		set __checkMessage_7qG2_i_7qG2_003, 0
4	86	278	#line 86 "C:\Users\stan\Desktop\Lund\LegoRobotRuzzle\Opencv_WebCa\NXT\Working_with_bluetooth - Copie.nxc"
4	87	278	#line 87 "C:\Users\stan\Desktop\Lund\LegoRobotRuzzle\Opencv_WebCa\NXT\Working_with_bluetooth - Copie.nxc"
4	88	278		set __checkMessage_7qG2_k_7qG2_003, 0
4	87	281	#line 87 "C:\Users\stan\Desktop\Lund\LegoRobotRuzzle\Opencv_WebCa\NXT\Working_with_bluetooth - Copie.nxc"
4	89	281	#line 89 "C:\Users\stan\Desktop\Lund\LegoRobotRuzzle\Opencv_WebCa\NXT\Working_with_bluetooth - Copie.nxc"
4	90	281		strcat __strbufcheckMessage, __constStr0009
4	89	285	#line 89 "C:\Users\stan\Desktop\Lund\LegoRobotRuzzle\Opencv_WebCa\NXT\Working_with_bluetooth - Copie.nxc"
4	90	285		mov __checkMessage_7qG2_value_7qG2_003, __strbufcheckMessage
4	89	287	#line 89 "C:\Users\stan\Desktop\Lund\LegoRobotRuzzle\Opencv_WebCa\NXT\Working_with_bluetooth - Copie.nxc"
4	90	287		mov __signed_stack_001checkMessage, __checkMessage_7qG2_i_7qG2_003
4	89	289	#line 89 "C:\Users\stan\Desktop\Lund\LegoRobotRuzzle\Opencv_WebCa\NXT\Working_with_bluetooth - Copie.nxc"
4	89	289	#line 89 "C:\Users\stan\Desktop\Lund\LegoRobotRuzzle\Opencv_WebCa\NXT\Working_with_bluetooth - Copie.nxc"
4	90	289		index __unsigned_stack_001checkMessage, __checkMessage_7qG2_buffer_7qG2_000, __signed_stack_001checkMessage
4	89	293	#line 89 "C:\Users\stan\Desktop\Lund\LegoRobotRuzzle\Opencv_WebCa\NXT\Working_with_bluetooth - Copie.nxc"
4	89	293	#line 89 "C:\Users\stan\Desktop\Lund\LegoRobotRuzzle\Opencv_WebCa\NXT\Working_with_bluetooth - Copie.nxc"
4	89	293	#line 89 "C:\Users\stan\Desktop\Lund\LegoRobotRuzzle\Opencv_WebCa\NXT\Working_with_bluetooth - Copie.nxc"
4	90	293		set __D0checkMessage, 42
4	89	296	#line 89 "C:\Users\stan\Desktop\Lund\LegoRobotRuzzle\Opencv_WebCa\NXT\Working_with_bluetooth - Copie.nxc"
4	90	296		cmp 5, __D0checkMessage, __unsigned_stack_001checkMessage, __D0checkMessage
4	90	300	#line 90 "C:\Users\stan\Desktop\Lund\LegoRobotRuzzle\Opencv_WebCa\NXT\Working_with_bluetooth - Copie.nxc"
4	91	300		brtst 4, __ASM_Label_703, __D0checkMessage
4	91	303	#line 91 "C:\Users\stan\Desktop\Lund\LegoRobotRuzzle\Opencv_WebCa\NXT\Working_with_bluetooth - Copie.nxc"
4	92	303		add __checkMessage_7qG2_i_7qG2_003, __checkMessage_7qG2_i_7qG2_003, __constVal1
4	91	307	#line 91 "C:\Users\stan\Desktop\Lund\LegoRobotRuzzle\Opencv_WebCa\NXT\Working_with_bluetooth - Copie.nxc"
4	92	307	#line 92 "C:\Users\stan\Desktop\Lund\LegoRobotRuzzle\Opencv_WebCa\NXT\Working_with_bluetooth - Copie.nxc"
4	93	307		jmp __ASM_Label_702
4	92	309	#line 92 "C:\Users\stan\Desktop\Lund\LegoRobotRuzzle\Opencv_WebCa\NXT\Working_with_bluetooth - Copie.nxc"
4	92	309	#line 92 "C:\Users\stan\Desktop\Lund\LegoRobotRuzzle\Opencv_WebCa\NXT\Working_with_bluetooth - Copie.nxc"
4	93	309		strcat __strbufcheckMessage, __checkMessage_7qG2_buffer_7qG2_000
4	92	313	#line 92 "C:\Users\stan\Desktop\Lund\LegoRobotRuzzle\Opencv_WebCa\NXT\Working_with_bluetooth - Copie.nxc"
4	93	313		mov __signed_stack_001checkMessage, __checkMessage_7qG2_k_7qG2_003
4	92	315	#line 92 "C:\Users\stan\Desktop\Lund\LegoRobotRuzzle\Opencv_WebCa\NXT\Working_with_bluetooth - Copie.nxc"
4	92	315	#line 92 "C:\Users\stan\Desktop\Lund\LegoRobotRuzzle\Opencv_WebCa\NXT\Working_with_bluetooth - Copie.nxc"
4	93	315		mov __signed_stack_002checkMessage, __checkMessage_7qG2_i_7qG2_003
4	92	317	#line 92 "C:\Users\stan\Desktop\Lund\LegoRobotRuzzle\Opencv_WebCa\NXT\Working_with_bluetooth - Copie.nxc"
4	92	317	#line 92 "C:\Users\stan\Desktop\Lund\LegoRobotRuzzle\Opencv_WebCa\NXT\Working_with_bluetooth - Copie.nxc"
4	93	317		mov __D0checkMessage, __checkMessage_7qG2_k_7qG2_003
4	92	319	#line 92 "C:\Users\stan\Desktop\Lund\LegoRobotRuzzle\Opencv_WebCa\NXT\Working_with_bluetooth - Copie.nxc"
4	93	319		sub __D0checkMessage, __signed_stack_002checkMessage, __D0checkMessage
4	93	323	#line 93 "C:\Users\stan\Desktop\Lund\LegoRobotRuzzle\Opencv_WebCa\NXT\Working_with_bluetooth - Copie.nxc"
4	94	323		strsubset __strretvalcheckMessage, __strbufcheckMessage, __signed_stack_001checkMessage, __D0checkMessage
4	93	328	#line 93 "C:\Users\stan\Desktop\Lund\LegoRobotRuzzle\Opencv_WebCa\NXT\Working_with_bluetooth - Copie.nxc"
4	94	328		strcat __strbufcheckMessage, __strretvalcheckMessage
4	93	332	#line 93 "C:\Users\stan\Desktop\Lund\LegoRobotRuzzle\Opencv_WebCa\NXT\Working_with_bluetooth - Copie.nxc"
4	94	332		mov __checkMessage_7qG2_value_7qG2_003, __strbufcheckMessage
4	93	334	#line 93 "C:\Users\stan\Desktop\Lund\LegoRobotRuzzle\Opencv_WebCa\NXT\Working_with_bluetooth - Copie.nxc"
4	93	334	#line 93 "C:\Users\stan\Desktop\Lund\LegoRobotRuzzle\Opencv_WebCa\NXT\Working_with_bluetooth - Copie.nxc"
4	94	334		set __signed_stack_001checkMessage, 0
4	93	337	#line 93 "C:\Users\stan\Desktop\Lund\LegoRobotRuzzle\Opencv_WebCa\NXT\Working_with_bluetooth - Copie.nxc"
4	93	337	#line 93 "C:\Users\stan\Desktop\Lund\LegoRobotRuzzle\Opencv_WebCa\NXT\Working_with_bluetooth - Copie.nxc"
4	94	337		set __signed_stack_002checkMessage, 56
4	93	340	#line 93 "C:\Users\stan\Desktop\Lund\LegoRobotRuzzle\Opencv_WebCa\NXT\Working_with_bluetooth - Copie.nxc"
4	93	340	#line 93 "C:\Users\stan\Desktop\Lund\LegoRobotRuzzle\Opencv_WebCa\NXT\Working_with_bluetooth - Copie.nxc"
4	94	340		strcat __strbufcheckMessage, __checkMessage_7qG2_value_7qG2_003
4	94	344	#line 94 "C:\Users\stan\Desktop\Lund\LegoRobotRuzzle\Opencv_WebCa\NXT\Working_with_bluetooth - Copie.nxc"
4	94	344	#line 94 "C:\Users\stan\Desktop\Lund\LegoRobotRuzzle\Opencv_WebCa\NXT\Working_with_bluetooth - Copie.nxc"
4	95	344		mov __TextOutArgs.Location.X, __signed_stack_001checkMessage
4	94	346	#line 94 "C:\Users\stan\Desktop\Lund\LegoRobotRuzzle\Opencv_WebCa\NXT\Working_with_bluetooth - Copie.nxc"
4	95	346		mov __TextOutArgs.Location.Y, __signed_stack_002checkMessage
4	94	348	#line 94 "C:\Users\stan\Desktop\Lund\LegoRobotRuzzle\Opencv_WebCa\NXT\Working_with_bluetooth - Copie.nxc"
4	95	348		set __TextOutArgs.Options, 0
4	94	351	#line 94 "C:\Users\stan\Desktop\Lund\LegoRobotRuzzle\Opencv_WebCa\NXT\Working_with_bluetooth - Copie.nxc"
4	95	351		mov __TextOutArgs.Text, __strbufcheckMessage
4	94	353	#line 94 "C:\Users\stan\Desktop\Lund\LegoRobotRuzzle\Opencv_WebCa\NXT\Working_with_bluetooth - Copie.nxc"
4	95	353		syscall 13, __TextOutArgs
4	94	356	#line 94 "C:\Users\stan\Desktop\Lund\LegoRobotRuzzle\Opencv_WebCa\NXT\Working_with_bluetooth - Copie.nxc"
4	95	356		mov __D0checkMessage, __TextOutArgs.Result
4	94	358	#line 94 "C:\Users\stan\Desktop\Lund\LegoRobotRuzzle\Opencv_WebCa\NXT\Working_with_bluetooth - Copie.nxc"
4	94	358	#line 94 "C:\Users\stan\Desktop\Lund\LegoRobotRuzzle\Opencv_WebCa\NXT\Working_with_bluetooth - Copie.nxc"
4	94	358	#line 94 "C:\Users\stan\Desktop\Lund\LegoRobotRuzzle\Opencv_WebCa\NXT\Working_with_bluetooth - Copie.nxc"
4	95	358		strcat __strbufcheckMessage, __checkMessage_7qG2_value_7qG2_003
4	95	362	#line 95 "C:\Users\stan\Desktop\Lund\LegoRobotRuzzle\Opencv_WebCa\NXT\Working_with_bluetooth - Copie.nxc"
4	96	362		strtonum degreeBetweenXTile, __signed_stack_001checkMessage, __strbufcheckMessage, 65535, 65535
4	95	368	#line 95 "C:\Users\stan\Desktop\Lund\LegoRobotRuzzle\Opencv_WebCa\NXT\Working_with_bluetooth - Copie.nxc"
4	95	368	#line 95 "C:\Users\stan\Desktop\Lund\LegoRobotRuzzle\Opencv_WebCa\NXT\Working_with_bluetooth - Copie.nxc"
4	96	368	#line 96 "C:\Users\stan\Desktop\Lund\LegoRobotRuzzle\Opencv_WebCa\NXT\Working_with_bluetooth - Copie.nxc"
4	97	368		add __checkMessage_7qG2_i_7qG2_003, __checkMessage_7qG2_i_7qG2_003, __constVal1
4	96	372	#line 96 "C:\Users\stan\Desktop\Lund\LegoRobotRuzzle\Opencv_WebCa\NXT\Working_with_bluetooth - Copie.nxc"
4	97	372	#line 97 "C:\Users\stan\Desktop\Lund\LegoRobotRuzzle\Opencv_WebCa\NXT\Working_with_bluetooth - Copie.nxc"
4	98	372		mov __checkMessage_7qG2_k_7qG2_003, __checkMessage_7qG2_i_7qG2_003
4	97	374	#line 97 "C:\Users\stan\Desktop\Lund\LegoRobotRuzzle\Opencv_WebCa\NXT\Working_with_bluetooth - Copie.nxc"
4	97	374	#line 97 "C:\Users\stan\Desktop\Lund\LegoRobotRuzzle\Opencv_WebCa\NXT\Working_with_bluetooth - Copie.nxc"
4	98	374	#line 98 "C:\Users\stan\Desktop\Lund\LegoRobotRuzzle\Opencv_WebCa\NXT\Working_with_bluetooth - Copie.nxc"
4	99	374		strcat __strbufcheckMessage, __constStr0009
4	98	378	#line 98 "C:\Users\stan\Desktop\Lund\LegoRobotRuzzle\Opencv_WebCa\NXT\Working_with_bluetooth - Copie.nxc"
4	99	378		mov __checkMessage_7qG2_value_7qG2_003, __strbufcheckMessage
4	98	380	#line 98 "C:\Users\stan\Desktop\Lund\LegoRobotRuzzle\Opencv_WebCa\NXT\Working_with_bluetooth - Copie.nxc"
4	98	380	#line 98 "C:\Users\stan\Desktop\Lund\LegoRobotRuzzle\Opencv_WebCa\NXT\Working_with_bluetooth - Copie.nxc"
4	99	380		mov __signed_stack_001checkMessage, __checkMessage_7qG2_i_7qG2_003
4	98	382	#line 98 "C:\Users\stan\Desktop\Lund\LegoRobotRuzzle\Opencv_WebCa\NXT\Working_with_bluetooth - Copie.nxc"
4	98	382	#line 98 "C:\Users\stan\Desktop\Lund\LegoRobotRuzzle\Opencv_WebCa\NXT\Working_with_bluetooth - Copie.nxc"
4	99	382		index __unsigned_stack_001checkMessage, __checkMessage_7qG2_buffer_7qG2_000, __signed_stack_001checkMessage
4	98	386	#line 98 "C:\Users\stan\Desktop\Lund\LegoRobotRuzzle\Opencv_WebCa\NXT\Working_with_bluetooth - Copie.nxc"
4	98	386	#line 98 "C:\Users\stan\Desktop\Lund\LegoRobotRuzzle\Opencv_WebCa\NXT\Working_with_bluetooth - Copie.nxc"
4	98	386	#line 98 "C:\Users\stan\Desktop\Lund\LegoRobotRuzzle\Opencv_WebCa\NXT\Working_with_bluetooth - Copie.nxc"
4	99	386		set __D0checkMessage, 42
4	98	389	#line 98 "C:\Users\stan\Desktop\Lund\LegoRobotRuzzle\Opencv_WebCa\NXT\Working_with_bluetooth - Copie.nxc"
4	99	389		cmp 5, __D0checkMessage, __unsigned_stack_001checkMessage, __D0checkMessage
4	99	393	#line 99 "C:\Users\stan\Desktop\Lund\LegoRobotRuzzle\Opencv_WebCa\NXT\Working_with_bluetooth - Copie.nxc"
4	100	393		brtst 4, __ASM_Label_721, __D0checkMessage
4	100	396	#line 100 "C:\Users\stan\Desktop\Lund\LegoRobotRuzzle\Opencv_WebCa\NXT\Working_with_bluetooth - Copie.nxc"
4	101	396		add __checkMessage_7qG2_i_7qG2_003, __checkMessage_7qG2_i_7qG2_003, __constVal1
4	100	400	#line 100 "C:\Users\stan\Desktop\Lund\LegoRobotRuzzle\Opencv_WebCa\NXT\Working_with_bluetooth - Copie.nxc"
4	101	400	#line 101 "C:\Users\stan\Desktop\Lund\LegoRobotRuzzle\Opencv_WebCa\NXT\Working_with_bluetooth - Copie.nxc"
4	102	400		jmp __ASM_Label_720
4	101	402	#line 101 "C:\Users\stan\Desktop\Lund\LegoRobotRuzzle\Opencv_WebCa\NXT\Working_with_bluetooth - Copie.nxc"
4	101	402	#line 101 "C:\Users\stan\Desktop\Lund\LegoRobotRuzzle\Opencv_WebCa\NXT\Working_with_bluetooth - Copie.nxc"
4	102	402		strcat __strbufcheckMessage, __checkMessage_7qG2_buffer_7qG2_000
4	101	406	#line 101 "C:\Users\stan\Desktop\Lund\LegoRobotRuzzle\Opencv_WebCa\NXT\Working_with_bluetooth - Copie.nxc"
4	102	406		mov __signed_stack_001checkMessage, __checkMessage_7qG2_k_7qG2_003
4	101	408	#line 101 "C:\Users\stan\Desktop\Lund\LegoRobotRuzzle\Opencv_WebCa\NXT\Working_with_bluetooth - Copie.nxc"
4	101	408	#line 101 "C:\Users\stan\Desktop\Lund\LegoRobotRuzzle\Opencv_WebCa\NXT\Working_with_bluetooth - Copie.nxc"
4	102	408		mov __signed_stack_002checkMessage, __checkMessage_7qG2_i_7qG2_003
4	101	410	#line 101 "C:\Users\stan\Desktop\Lund\LegoRobotRuzzle\Opencv_WebCa\NXT\Working_with_bluetooth - Copie.nxc"
4	101	410	#line 101 "C:\Users\stan\Desktop\Lund\LegoRobotRuzzle\Opencv_WebCa\NXT\Working_with_bluetooth - Copie.nxc"
4	102	410		mov __D0checkMessage, __checkMessage_7qG2_k_7qG2_003
4	101	412	#line 101 "C:\Users\stan\Desktop\Lund\LegoRobotRuzzle\Opencv_WebCa\NXT\Working_with_bluetooth - Copie.nxc"
4	102	412		sub __D0checkMessage, __signed_stack_002checkMessage, __D0checkMessage
4	102	416	#line 102 "C:\Users\stan\Desktop\Lund\LegoRobotRuzzle\Opencv_WebCa\NXT\Working_with_bluetooth - Copie.nxc"
4	103	416		strsubset __strretvalcheckMessage, __strbufcheckMessage, __signed_stack_001checkMessage, __D0checkMessage
4	102	421	#line 102 "C:\Users\stan\Desktop\Lund\LegoRobotRuzzle\Opencv_WebCa\NXT\Working_with_bluetooth - Copie.nxc"
4	103	421		strcat __strbufcheckMessage, __strretvalcheckMessage
4	102	425	#line 102 "C:\Users\stan\Desktop\Lund\LegoRobotRuzzle\Opencv_WebCa\NXT\Working_with_bluetooth - Copie.nxc"
4	103	425		mov __checkMessage_7qG2_value_7qG2_003, __strbufcheckMessage
4	102	427	#line 102 "C:\Users\stan\Desktop\Lund\LegoRobotRuzzle\Opencv_WebCa\NXT\Working_with_bluetooth - Copie.nxc"
4	102	427	#line 102 "C:\Users\stan\Desktop\Lund\LegoRobotRuzzle\Opencv_WebCa\NXT\Working_with_bluetooth - Copie.nxc"
4	103	427		set __signed_stack_001checkMessage, 0
4	102	430	#line 102 "C:\Users\stan\Desktop\Lund\LegoRobotRuzzle\Opencv_WebCa\NXT\Working_with_bluetooth - Copie.nxc"
4	102	430	#line 102 "C:\Users\stan\Desktop\Lund\LegoRobotRuzzle\Opencv_WebCa\NXT\Working_with_bluetooth - Copie.nxc"
4	103	430		set __signed_stack_002checkMessage, 48
4	102	433	#line 102 "C:\Users\stan\Desktop\Lund\LegoRobotRuzzle\Opencv_WebCa\NXT\Working_with_bluetooth - Copie.nxc"
4	102	433	#line 102 "C:\Users\stan\Desktop\Lund\LegoRobotRuzzle\Opencv_WebCa\NXT\Working_with_bluetooth - Copie.nxc"
4	103	433		strcat __strbufcheckMessage, __checkMessage_7qG2_value_7qG2_003
4	103	437	#line 103 "C:\Users\stan\Desktop\Lund\LegoRobotRuzzle\Opencv_WebCa\NXT\Working_with_bluetooth - Copie.nxc"
4	103	437	#line 103 "C:\Users\stan\Desktop\Lund\LegoRobotRuzzle\Opencv_WebCa\NXT\Working_with_bluetooth - Copie.nxc"
4	104	437		mov __TextOutArgs.Location.X, __signed_stack_001checkMessage
4	103	439	#line 103 "C:\Users\stan\Desktop\Lund\LegoRobotRuzzle\Opencv_WebCa\NXT\Working_with_bluetooth - Copie.nxc"
4	104	439		mov __TextOutArgs.Location.Y, __signed_stack_002checkMessage
4	103	441	#line 103 "C:\Users\stan\Desktop\Lund\LegoRobotRuzzle\Opencv_WebCa\NXT\Working_with_bluetooth - Copie.nxc"
4	104	441		set __TextOutArgs.Options, 0
4	103	444	#line 103 "C:\Users\stan\Desktop\Lund\LegoRobotRuzzle\Opencv_WebCa\NXT\Working_with_bluetooth - Copie.nxc"
4	104	444		mov __TextOutArgs.Text, __strbufcheckMessage
4	103	446	#line 103 "C:\Users\stan\Desktop\Lund\LegoRobotRuzzle\Opencv_WebCa\NXT\Working_with_bluetooth - Copie.nxc"
4	104	446		syscall 13, __TextOutArgs
4	103	449	#line 103 "C:\Users\stan\Desktop\Lund\LegoRobotRuzzle\Opencv_WebCa\NXT\Working_with_bluetooth - Copie.nxc"
4	104	449		mov __D0checkMessage, __TextOutArgs.Result
4	103	451	#line 103 "C:\Users\stan\Desktop\Lund\LegoRobotRuzzle\Opencv_WebCa\NXT\Working_with_bluetooth - Copie.nxc"
4	103	451	#line 103 "C:\Users\stan\Desktop\Lund\LegoRobotRuzzle\Opencv_WebCa\NXT\Working_with_bluetooth - Copie.nxc"
4	103	451	#line 103 "C:\Users\stan\Desktop\Lund\LegoRobotRuzzle\Opencv_WebCa\NXT\Working_with_bluetooth - Copie.nxc"
4	104	451		strcat __strbufcheckMessage, __checkMessage_7qG2_value_7qG2_003
4	104	455	#line 104 "C:\Users\stan\Desktop\Lund\LegoRobotRuzzle\Opencv_WebCa\NXT\Working_with_bluetooth - Copie.nxc"
4	105	455		strtonum degreeBetweenYTile, __signed_stack_001checkMessage, __strbufcheckMessage, 65535, 65535
4	104	461	#line 104 "C:\Users\stan\Desktop\Lund\LegoRobotRuzzle\Opencv_WebCa\NXT\Working_with_bluetooth - Copie.nxc"
4	104	461	#line 104 "C:\Users\stan\Desktop\Lund\LegoRobotRuzzle\Opencv_WebCa\NXT\Working_with_bluetooth - Copie.nxc"
4	105	461	#line 105 "C:\Users\stan\Desktop\Lund\LegoRobotRuzzle\Opencv_WebCa\NXT\Working_with_bluetooth - Copie.nxc"
4	106	461		add __checkMessage_7qG2_i_7qG2_003, __checkMessage_7qG2_i_7qG2_003, __constVal1
4	105	465	#line 105 "C:\Users\stan\Desktop\Lund\LegoRobotRuzzle\Opencv_WebCa\NXT\Working_with_bluetooth - Copie.nxc"
4	106	465	#line 106 "C:\Users\stan\Desktop\Lund\LegoRobotRuzzle\Opencv_WebCa\NXT\Working_with_bluetooth - Copie.nxc"
4	107	465		mov __checkMessage_7qG2_k_7qG2_003, __checkMessage_7qG2_i_7qG2_003
4	106	467	#line 106 "C:\Users\stan\Desktop\Lund\LegoRobotRuzzle\Opencv_WebCa\NXT\Working_with_bluetooth - Copie.nxc"
4	106	467	#line 106 "C:\Users\stan\Desktop\Lund\LegoRobotRuzzle\Opencv_WebCa\NXT\Working_with_bluetooth - Copie.nxc"
4	107	467	#line 107 "C:\Users\stan\Desktop\Lund\LegoRobotRuzzle\Opencv_WebCa\NXT\Working_with_bluetooth - Copie.nxc"
4	108	467		strcat __strbufcheckMessage, __constStr0009
4	107	471	#line 107 "C:\Users\stan\Desktop\Lund\LegoRobotRuzzle\Opencv_WebCa\NXT\Working_with_bluetooth - Copie.nxc"
4	108	471		mov __checkMessage_7qG2_value_7qG2_003, __strbufcheckMessage
4	107	473	#line 107 "C:\Users\stan\Desktop\Lund\LegoRobotRuzzle\Opencv_WebCa\NXT\Working_with_bluetooth - Copie.nxc"
4	107	473	#line 107 "C:\Users\stan\Desktop\Lund\LegoRobotRuzzle\Opencv_WebCa\NXT\Working_with_bluetooth - Copie.nxc"
4	108	473		mov __signed_stack_001checkMessage, __checkMessage_7qG2_i_7qG2_003
4	107	475	#line 107 "C:\Users\stan\Desktop\Lund\LegoRobotRuzzle\Opencv_WebCa\NXT\Working_with_bluetooth - Copie.nxc"
4	107	475	#line 107 "C:\Users\stan\Desktop\Lund\LegoRobotRuzzle\Opencv_WebCa\NXT\Working_with_bluetooth - Copie.nxc"
4	108	475		index __unsigned_stack_001checkMessage, __checkMessage_7qG2_buffer_7qG2_000, __signed_stack_001checkMessage
4	107	479	#line 107 "C:\Users\stan\Desktop\Lund\LegoRobotRuzzle\Opencv_WebCa\NXT\Working_with_bluetooth - Copie.nxc"
4	107	479	#line 107 "C:\Users\stan\Desktop\Lund\LegoRobotRuzzle\Opencv_WebCa\NXT\Working_with_bluetooth - Copie.nxc"
4	107	479	#line 107 "C:\Users\stan\Desktop\Lund\LegoRobotRuzzle\Opencv_WebCa\NXT\Working_with_bluetooth - Copie.nxc"
4	108	479		set __D0checkMessage, 42
4	107	482	#line 107 "C:\Users\stan\Desktop\Lund\LegoRobotRuzzle\Opencv_WebCa\NXT\Working_with_bluetooth - Copie.nxc"
4	108	482		cmp 5, __D0checkMessage, __unsigned_stack_001checkMessage, __D0checkMessage
4	108	486	#line 108 "C:\Users\stan\Desktop\Lund\LegoRobotRuzzle\Opencv_WebCa\NXT\Working_with_bluetooth - Copie.nxc"
4	109	486		brtst 4, __ASM_Label_739, __D0checkMessage
4	109	489	#line 109 "C:\Users\stan\Desktop\Lund\LegoRobotRuzzle\Opencv_WebCa\NXT\Working_with_bluetooth - Copie.nxc"
4	110	489		add __checkMessage_7qG2_i_7qG2_003, __checkMessage_7qG2_i_7qG2_003, __constVal1
4	109	493	#line 109 "C:\Users\stan\Desktop\Lund\LegoRobotRuzzle\Opencv_WebCa\NXT\Working_with_bluetooth - Copie.nxc"
4	110	493	#line 110 "C:\Users\stan\Desktop\Lund\LegoRobotRuzzle\Opencv_WebCa\NXT\Working_with_bluetooth - Copie.nxc"
4	111	493		jmp __ASM_Label_738
4	110	495	#line 110 "C:\Users\stan\Desktop\Lund\LegoRobotRuzzle\Opencv_WebCa\NXT\Working_with_bluetooth - Copie.nxc"
4	110	495	#line 110 "C:\Users\stan\Desktop\Lund\LegoRobotRuzzle\Opencv_WebCa\NXT\Working_with_bluetooth - Copie.nxc"
4	111	495		strcat __strbufcheckMessage, __checkMessage_7qG2_buffer_7qG2_000
4	110	499	#line 110 "C:\Users\stan\Desktop\Lund\LegoRobotRuzzle\Opencv_WebCa\NXT\Working_with_bluetooth - Copie.nxc"
4	111	499		mov __signed_stack_001checkMessage, __checkMessage_7qG2_k_7qG2_003
4	110	501	#line 110 "C:\Users\stan\Desktop\Lund\LegoRobotRuzzle\Opencv_WebCa\NXT\Working_with_bluetooth - Copie.nxc"
4	110	501	#line 110 "C:\Users\stan\Desktop\Lund\LegoRobotRuzzle\Opencv_WebCa\NXT\Working_with_bluetooth - Copie.nxc"
4	111	501		mov __signed_stack_002checkMessage, __checkMessage_7qG2_i_7qG2_003
4	110	503	#line 110 "C:\Users\stan\Desktop\Lund\LegoRobotRuzzle\Opencv_WebCa\NXT\Working_with_bluetooth - Copie.nxc"
4	110	503	#line 110 "C:\Users\stan\Desktop\Lund\LegoRobotRuzzle\Opencv_WebCa\NXT\Working_with_bluetooth - Copie.nxc"
4	111	503		mov __D0checkMessage, __checkMessage_7qG2_k_7qG2_003
4	110	505	#line 110 "C:\Users\stan\Desktop\Lund\LegoRobotRuzzle\Opencv_WebCa\NXT\Working_with_bluetooth - Copie.nxc"
4	111	505		sub __D0checkMessage, __signed_stack_002checkMessage, __D0checkMessage
4	111	509	#line 111 "C:\Users\stan\Desktop\Lund\LegoRobotRuzzle\Opencv_WebCa\NXT\Working_with_bluetooth - Copie.nxc"
4	112	509		strsubset __strretvalcheckMessage, __strbufcheckMessage, __signed_stack_001checkMessage, __D0checkMessage
4	111	514	#line 111 "C:\Users\stan\Desktop\Lund\LegoRobotRuzzle\Opencv_WebCa\NXT\Working_with_bluetooth - Copie.nxc"
4	112	514		strcat __strbufcheckMessage, __strretvalcheckMessage
4	111	518	#line 111 "C:\Users\stan\Desktop\Lund\LegoRobotRuzzle\Opencv_WebCa\NXT\Working_with_bluetooth - Copie.nxc"
4	112	518		mov __checkMessage_7qG2_value_7qG2_003, __strbufcheckMessage
4	111	520	#line 111 "C:\Users\stan\Desktop\Lund\LegoRobotRuzzle\Opencv_WebCa\NXT\Working_with_bluetooth - Copie.nxc"
4	111	520	#line 111 "C:\Users\stan\Desktop\Lund\LegoRobotRuzzle\Opencv_WebCa\NXT\Working_with_bluetooth - Copie.nxc"
4	112	520		set __signed_stack_001checkMessage, 0
4	111	523	#line 111 "C:\Users\stan\Desktop\Lund\LegoRobotRuzzle\Opencv_WebCa\NXT\Working_with_bluetooth - Copie.nxc"
4	111	523	#line 111 "C:\Users\stan\Desktop\Lund\LegoRobotRuzzle\Opencv_WebCa\NXT\Working_with_bluetooth - Copie.nxc"
4	112	523		set __signed_stack_002checkMessage, 56
4	111	526	#line 111 "C:\Users\stan\Desktop\Lund\LegoRobotRuzzle\Opencv_WebCa\NXT\Working_with_bluetooth - Copie.nxc"
4	111	526	#line 111 "C:\Users\stan\Desktop\Lund\LegoRobotRuzzle\Opencv_WebCa\NXT\Working_with_bluetooth - Copie.nxc"
4	112	526		strcat __strbufcheckMessage, __checkMessage_7qG2_value_7qG2_003
4	112	530	#line 112 "C:\Users\stan\Desktop\Lund\LegoRobotRuzzle\Opencv_WebCa\NXT\Working_with_bluetooth - Copie.nxc"
4	112	530	#line 112 "C:\Users\stan\Desktop\Lund\LegoRobotRuzzle\Opencv_WebCa\NXT\Working_with_bluetooth - Copie.nxc"
4	113	530		mov __TextOutArgs.Location.X, __signed_stack_001checkMessage
4	112	532	#line 112 "C:\Users\stan\Desktop\Lund\LegoRobotRuzzle\Opencv_WebCa\NXT\Working_with_bluetooth - Copie.nxc"
4	113	532		mov __TextOutArgs.Location.Y, __signed_stack_002checkMessage
4	112	534	#line 112 "C:\Users\stan\Desktop\Lund\LegoRobotRuzzle\Opencv_WebCa\NXT\Working_with_bluetooth - Copie.nxc"
4	113	534		set __TextOutArgs.Options, 0
4	112	537	#line 112 "C:\Users\stan\Desktop\Lund\LegoRobotRuzzle\Opencv_WebCa\NXT\Working_with_bluetooth - Copie.nxc"
4	113	537		mov __TextOutArgs.Text, __strbufcheckMessage
4	112	539	#line 112 "C:\Users\stan\Desktop\Lund\LegoRobotRuzzle\Opencv_WebCa\NXT\Working_with_bluetooth - Copie.nxc"
4	113	539		syscall 13, __TextOutArgs
4	112	542	#line 112 "C:\Users\stan\Desktop\Lund\LegoRobotRuzzle\Opencv_WebCa\NXT\Working_with_bluetooth - Copie.nxc"
4	113	542		mov __D0checkMessage, __TextOutArgs.Result
4	112	544	#line 112 "C:\Users\stan\Desktop\Lund\LegoRobotRuzzle\Opencv_WebCa\NXT\Working_with_bluetooth - Copie.nxc"
4	112	544	#line 112 "C:\Users\stan\Desktop\Lund\LegoRobotRuzzle\Opencv_WebCa\NXT\Working_with_bluetooth - Copie.nxc"
4	112	544	#line 112 "C:\Users\stan\Desktop\Lund\LegoRobotRuzzle\Opencv_WebCa\NXT\Working_with_bluetooth - Copie.nxc"
4	113	544		strcat __strbufcheckMessage, __checkMessage_7qG2_value_7qG2_003
4	113	548	#line 113 "C:\Users\stan\Desktop\Lund\LegoRobotRuzzle\Opencv_WebCa\NXT\Working_with_bluetooth - Copie.nxc"
4	114	548		strtonum X0, __signed_stack_001checkMessage, __strbufcheckMessage, 65535, 65535
4	113	554	#line 113 "C:\Users\stan\Desktop\Lund\LegoRobotRuzzle\Opencv_WebCa\NXT\Working_with_bluetooth - Copie.nxc"
4	113	554	#line 113 "C:\Users\stan\Desktop\Lund\LegoRobotRuzzle\Opencv_WebCa\NXT\Working_with_bluetooth - Copie.nxc"
4	114	554	#line 114 "C:\Users\stan\Desktop\Lund\LegoRobotRuzzle\Opencv_WebCa\NXT\Working_with_bluetooth - Copie.nxc"
4	115	554		add __checkMessage_7qG2_i_7qG2_003, __checkMessage_7qG2_i_7qG2_003, __constVal1
4	114	558	#line 114 "C:\Users\stan\Desktop\Lund\LegoRobotRuzzle\Opencv_WebCa\NXT\Working_with_bluetooth - Copie.nxc"
4	115	558	#line 115 "C:\Users\stan\Desktop\Lund\LegoRobotRuzzle\Opencv_WebCa\NXT\Working_with_bluetooth - Copie.nxc"
4	116	558		mov __checkMessage_7qG2_k_7qG2_003, __checkMessage_7qG2_i_7qG2_003
4	115	560	#line 115 "C:\Users\stan\Desktop\Lund\LegoRobotRuzzle\Opencv_WebCa\NXT\Working_with_bluetooth - Copie.nxc"
4	115	560	#line 115 "C:\Users\stan\Desktop\Lund\LegoRobotRuzzle\Opencv_WebCa\NXT\Working_with_bluetooth - Copie.nxc"
4	116	560	#line 116 "C:\Users\stan\Desktop\Lund\LegoRobotRuzzle\Opencv_WebCa\NXT\Working_with_bluetooth - Copie.nxc"
4	117	560		strcat __strbufcheckMessage, __constStr0009
4	116	564	#line 116 "C:\Users\stan\Desktop\Lund\LegoRobotRuzzle\Opencv_WebCa\NXT\Working_with_bluetooth - Copie.nxc"
4	117	564		mov __checkMessage_7qG2_value_7qG2_003, __strbufcheckMessage
4	116	566	#line 116 "C:\Users\stan\Desktop\Lund\LegoRobotRuzzle\Opencv_WebCa\NXT\Working_with_bluetooth - Copie.nxc"
4	116	566	#line 116 "C:\Users\stan\Desktop\Lund\LegoRobotRuzzle\Opencv_WebCa\NXT\Working_with_bluetooth - Copie.nxc"
4	117	566		mov __signed_stack_001checkMessage, __checkMessage_7qG2_i_7qG2_003
4	116	568	#line 116 "C:\Users\stan\Desktop\Lund\LegoRobotRuzzle\Opencv_WebCa\NXT\Working_with_bluetooth - Copie.nxc"
4	116	568	#line 116 "C:\Users\stan\Desktop\Lund\LegoRobotRuzzle\Opencv_WebCa\NXT\Working_with_bluetooth - Copie.nxc"
4	117	568		index __unsigned_stack_001checkMessage, __checkMessage_7qG2_buffer_7qG2_000, __signed_stack_001checkMessage
4	116	572	#line 116 "C:\Users\stan\Desktop\Lund\LegoRobotRuzzle\Opencv_WebCa\NXT\Working_with_bluetooth - Copie.nxc"
4	116	572	#line 116 "C:\Users\stan\Desktop\Lund\LegoRobotRuzzle\Opencv_WebCa\NXT\Working_with_bluetooth - Copie.nxc"
4	116	572	#line 116 "C:\Users\stan\Desktop\Lund\LegoRobotRuzzle\Opencv_WebCa\NXT\Working_with_bluetooth - Copie.nxc"
4	117	572		set __D0checkMessage, 42
4	116	575	#line 116 "C:\Users\stan\Desktop\Lund\LegoRobotRuzzle\Opencv_WebCa\NXT\Working_with_bluetooth - Copie.nxc"
4	117	575		cmp 5, __D0checkMessage, __unsigned_stack_001checkMessage, __D0checkMessage
4	117	579	#line 117 "C:\Users\stan\Desktop\Lund\LegoRobotRuzzle\Opencv_WebCa\NXT\Working_with_bluetooth - Copie.nxc"
4	118	579		brtst 4, __ASM_Label_757, __D0checkMessage
4	117	582	#line 117 "C:\Users\stan\Desktop\Lund\LegoRobotRuzzle\Opencv_WebCa\NXT\Working_with_bluetooth - Copie.nxc"
4	118	582		mov __strcat_7qG2_dest_7qG2_000_inline_checkMessage, __checkMessage_7qG2_value_7qG2_003
4	117	584	#line 117 "C:\Users\stan\Desktop\Lund\LegoRobotRuzzle\Opencv_WebCa\NXT\Working_with_bluetooth - Copie.nxc"
4	118	584		mov __signed_stack_001checkMessage, __checkMessage_7qG2_i_7qG2_003
4	117	586	#line 117 "C:\Users\stan\Desktop\Lund\LegoRobotRuzzle\Opencv_WebCa\NXT\Working_with_bluetooth - Copie.nxc"
4	117	586	#line 117 "C:\Users\stan\Desktop\Lund\LegoRobotRuzzle\Opencv_WebCa\NXT\Working_with_bluetooth - Copie.nxc"
4	118	586		index __DU0checkMessage, __checkMessage_7qG2_buffer_7qG2_000, __signed_stack_001checkMessage
4	117	590	#line 117 "C:\Users\stan\Desktop\Lund\LegoRobotRuzzle\Opencv_WebCa\NXT\Working_with_bluetooth - Copie.nxc"
4	117	590	#line 117 "C:\Users\stan\Desktop\Lund\LegoRobotRuzzle\Opencv_WebCa\NXT\Working_with_bluetooth - Copie.nxc"
4	118	590		strcat __strbufcheckMessage, __strretvalcheckMessage
4	117	594	#line 117 "C:\Users\stan\Desktop\Lund\LegoRobotRuzzle\Opencv_WebCa\NXT\Working_with_bluetooth - Copie.nxc"
4	118	594		mov __strcat_7qG2_src_7qG2_000_inline_checkMessage, __strbufcheckMessage
4	20264	596	#line 20264 "NXCDefs.h"
4	20265	596		strcat __strbufstrcat_inline_checkMessage, __strcat_7qG2_dest_7qG2_000_inline_checkMessage, __strcat_7qG2_src_7qG2_000_inline_checkMessage
4	20266	601		mov __strcat_7qG2_dest_7qG2_000_inline_checkMessage, __strbufstrcat_inline_checkMessage
4	20267	603	#line 20267 "NXCDefs.h"
4	118	603	#line 118 "C:\Users\stan\Desktop\Lund\LegoRobotRuzzle\Opencv_WebCa\NXT\Working_with_bluetooth - Copie.nxc"
4	119	603		mov __checkMessage_7qG2_value_7qG2_003, __strbufstrcat_inline_checkMessage
4	118	605	#line 118 "C:\Users\stan\Desktop\Lund\LegoRobotRuzzle\Opencv_WebCa\NXT\Working_with_bluetooth - Copie.nxc"
4	119	605		mov __strretvalcheckMessage, __strbufstrcat_inline_checkMessage
4	118	607	#line 118 "C:\Users\stan\Desktop\Lund\LegoRobotRuzzle\Opencv_WebCa\NXT\Working_with_bluetooth - Copie.nxc"
4	119	607	#line 119 "C:\Users\stan\Desktop\Lund\LegoRobotRuzzle\Opencv_WebCa\NXT\Working_with_bluetooth - Copie.nxc"
4	120	607		add __checkMessage_7qG2_i_7qG2_003, __checkMessage_7qG2_i_7qG2_003, __constVal1
4	119	611	#line 119 "C:\Users\stan\Desktop\Lund\LegoRobotRuzzle\Opencv_WebCa\NXT\Working_with_bluetooth - Copie.nxc"
4	120	611	#line 120 "C:\Users\stan\Desktop\Lund\LegoRobotRuzzle\Opencv_WebCa\NXT\Working_with_bluetooth - Copie.nxc"
4	121	611		jmp __ASM_Label_756
4	120	613	#line 120 "C:\Users\stan\Desktop\Lund\LegoRobotRuzzle\Opencv_WebCa\NXT\Working_with_bluetooth - Copie.nxc"
4	120	613	#line 120 "C:\Users\stan\Desktop\Lund\LegoRobotRuzzle\Opencv_WebCa\NXT\Working_with_bluetooth - Copie.nxc"
4	121	613		strcat __strbufcheckMessage, __checkMessage_7qG2_buffer_7qG2_000
4	120	617	#line 120 "C:\Users\stan\Desktop\Lund\LegoRobotRuzzle\Opencv_WebCa\NXT\Working_with_bluetooth - Copie.nxc"
4	121	617		mov __signed_stack_001checkMessage, __checkMessage_7qG2_k_7qG2_003
4	120	619	#line 120 "C:\Users\stan\Desktop\Lund\LegoRobotRuzzle\Opencv_WebCa\NXT\Working_with_bluetooth - Copie.nxc"
4	120	619	#line 120 "C:\Users\stan\Desktop\Lund\LegoRobotRuzzle\Opencv_WebCa\NXT\Working_with_bluetooth - Copie.nxc"
4	121	619		mov __signed_stack_002checkMessage, __checkMessage_7qG2_i_7qG2_003
4	120	621	#line 120 "C:\Users\stan\Desktop\Lund\LegoRobotRuzzle\Opencv_WebCa\NXT\Working_with_bluetooth - Copie.nxc"
4	120	621	#line 120 "C:\Users\stan\Desktop\Lund\LegoRobotRuzzle\Opencv_WebCa\NXT\Working_with_bluetooth - Copie.nxc"
4	121	621		mov __D0checkMessage, __checkMessage_7qG2_k_7qG2_003
4	120	623	#line 120 "C:\Users\stan\Desktop\Lund\LegoRobotRuzzle\Opencv_WebCa\NXT\Working_with_bluetooth - Copie.nxc"
4	121	623		sub __D0checkMessage, __signed_stack_002checkMessage, __D0checkMessage
4	121	627	#line 121 "C:\Users\stan\Desktop\Lund\LegoRobotRuzzle\Opencv_WebCa\NXT\Working_with_bluetooth - Copie.nxc"
4	122	627		strsubset __strretvalcheckMessage, __strbufcheckMessage, __signed_stack_001checkMessage, __D0checkMessage
4	121	632	#line 121 "C:\Users\stan\Desktop\Lund\LegoRobotRuzzle\Opencv_WebCa\NXT\Working_with_bluetooth - Copie.nxc"
4	122	632		strcat __strbufcheckMessage, __strretvalcheckMessage
4	121	636	#line 121 "C:\Users\stan\Desktop\Lund\LegoRobotRuzzle\Opencv_WebCa\NXT\Working_with_bluetooth - Copie.nxc"
4	122	636		mov __checkMessage_7qG2_value_7qG2_003, __strbufcheckMessage
4	121	638	#line 121 "C:\Users\stan\Desktop\Lund\LegoRobotRuzzle\Opencv_WebCa\NXT\Working_with_bluetooth - Copie.nxc"
4	121	638	#line 121 "C:\Users\stan\Desktop\Lund\LegoRobotRuzzle\Opencv_WebCa\NXT\Working_with_bluetooth - Copie.nxc"
4	122	638		set __signed_stack_001checkMessage, 0
4	121	641	#line 121 "C:\Users\stan\Desktop\Lund\LegoRobotRuzzle\Opencv_WebCa\NXT\Working_with_bluetooth - Copie.nxc"
4	121	641	#line 121 "C:\Users\stan\Desktop\Lund\LegoRobotRuzzle\Opencv_WebCa\NXT\Working_with_bluetooth - Copie.nxc"
4	122	641		set __signed_stack_002checkMessage, 56
4	121	644	#line 121 "C:\Users\stan\Desktop\Lund\LegoRobotRuzzle\Opencv_WebCa\NXT\Working_with_bluetooth - Copie.nxc"
4	121	644	#line 121 "C:\Users\stan\Desktop\Lund\LegoRobotRuzzle\Opencv_WebCa\NXT\Working_with_bluetooth - Copie.nxc"
4	122	644		strcat __strbufcheckMessage, __checkMessage_7qG2_value_7qG2_003
4	122	648	#line 122 "C:\Users\stan\Desktop\Lund\LegoRobotRuzzle\Opencv_WebCa\NXT\Working_with_bluetooth - Copie.nxc"
4	122	648	#line 122 "C:\Users\stan\Desktop\Lund\LegoRobotRuzzle\Opencv_WebCa\NXT\Working_with_bluetooth - Copie.nxc"
4	123	648		mov __TextOutArgs.Location.X, __signed_stack_001checkMessage
4	122	650	#line 122 "C:\Users\stan\Desktop\Lund\LegoRobotRuzzle\Opencv_WebCa\NXT\Working_with_bluetooth - Copie.nxc"
4	123	650		mov __TextOutArgs.Location.Y, __signed_stack_002checkMessage
4	122	652	#line 122 "C:\Users\stan\Desktop\Lund\LegoRobotRuzzle\Opencv_WebCa\NXT\Working_with_bluetooth - Copie.nxc"
4	123	652		set __TextOutArgs.Options, 0
4	122	655	#line 122 "C:\Users\stan\Desktop\Lund\LegoRobotRuzzle\Opencv_WebCa\NXT\Working_with_bluetooth - Copie.nxc"
4	123	655		mov __TextOutArgs.Text, __strbufcheckMessage
4	122	657	#line 122 "C:\Users\stan\Desktop\Lund\LegoRobotRuzzle\Opencv_WebCa\NXT\Working_with_bluetooth - Copie.nxc"
4	123	657		syscall 13, __TextOutArgs
4	122	660	#line 122 "C:\Users\stan\Desktop\Lund\LegoRobotRuzzle\Opencv_WebCa\NXT\Working_with_bluetooth - Copie.nxc"
4	123	660		mov __D0checkMessage, __TextOutArgs.Result
4	122	662	#line 122 "C:\Users\stan\Desktop\Lund\LegoRobotRuzzle\Opencv_WebCa\NXT\Working_with_bluetooth - Copie.nxc"
4	122	662	#line 122 "C:\Users\stan\Desktop\Lund\LegoRobotRuzzle\Opencv_WebCa\NXT\Working_with_bluetooth - Copie.nxc"
4	122	662	#line 122 "C:\Users\stan\Desktop\Lund\LegoRobotRuzzle\Opencv_WebCa\NXT\Working_with_bluetooth - Copie.nxc"
4	123	662		strcat __strbufcheckMessage, __checkMessage_7qG2_value_7qG2_003
4	124	666	#line 124 "C:\Users\stan\Desktop\Lund\LegoRobotRuzzle\Opencv_WebCa\NXT\Working_with_bluetooth - Copie.nxc"
4	125	666		strtonum Y0, __signed_stack_001checkMessage, __strbufcheckMessage, 65535, 65535
4	124	672	#line 124 "C:\Users\stan\Desktop\Lund\LegoRobotRuzzle\Opencv_WebCa\NXT\Working_with_bluetooth - Copie.nxc"
4	124	672	#line 124 "C:\Users\stan\Desktop\Lund\LegoRobotRuzzle\Opencv_WebCa\NXT\Working_with_bluetooth - Copie.nxc"
4	125	672	#line 125 "C:\Users\stan\Desktop\Lund\LegoRobotRuzzle\Opencv_WebCa\NXT\Working_with_bluetooth - Copie.nxc"
4	126	672		jmp __ASM_Label_774
4	125	674	#line 125 "C:\Users\stan\Desktop\Lund\LegoRobotRuzzle\Opencv_WebCa\NXT\Working_with_bluetooth - Copie.nxc"
4	126	674		strcat __strbufcheckMessage, __checkMessage_7qG2_buffer_7qG2_000
4	125	678	#line 125 "C:\Users\stan\Desktop\Lund\LegoRobotRuzzle\Opencv_WebCa\NXT\Working_with_bluetooth - Copie.nxc"
4	126	678		mov __strtmpbufcheckMessage, __strbufcheckMessage
4	125	680	#line 125 "C:\Users\stan\Desktop\Lund\LegoRobotRuzzle\Opencv_WebCa\NXT\Working_with_bluetooth - Copie.nxc"
4	126	680		strcat __strbufcheckMessage, __constStr0016
4	125	684	#line 125 "C:\Users\stan\Desktop\Lund\LegoRobotRuzzle\Opencv_WebCa\NXT\Working_with_bluetooth - Copie.nxc"
4	126	684		cmp 4, __D0checkMessage, __strtmpbufcheckMessage, __strbufcheckMessage
4	126	688	#line 126 "C:\Users\stan\Desktop\Lund\LegoRobotRuzzle\Opencv_WebCa\NXT\Working_with_bluetooth - Copie.nxc"
4	127	688		brtst 4, __ASM_Label_777, __D0checkMessage
4	126	691	#line 126 "C:\Users\stan\Desktop\Lund\LegoRobotRuzzle\Opencv_WebCa\NXT\Working_with_bluetooth - Copie.nxc"
4	127	691		set __signed_stack_001checkMessage, 0
4	126	694	#line 126 "C:\Users\stan\Desktop\Lund\LegoRobotRuzzle\Opencv_WebCa\NXT\Working_with_bluetooth - Copie.nxc"
4	126	694	#line 126 "C:\Users\stan\Desktop\Lund\LegoRobotRuzzle\Opencv_WebCa\NXT\Working_with_bluetooth - Copie.nxc"
4	127	694		set __signed_stack_002checkMessage, 24
4	126	697	#line 126 "C:\Users\stan\Desktop\Lund\LegoRobotRuzzle\Opencv_WebCa\NXT\Working_with_bluetooth - Copie.nxc"
4	126	697	#line 126 "C:\Users\stan\Desktop\Lund\LegoRobotRuzzle\Opencv_WebCa\NXT\Working_with_bluetooth - Copie.nxc"
4	127	697		strcat __strbufcheckMessage, __constStr0017
4	127	701	#line 127 "C:\Users\stan\Desktop\Lund\LegoRobotRuzzle\Opencv_WebCa\NXT\Working_with_bluetooth - Copie.nxc"
4	127	701	#line 127 "C:\Users\stan\Desktop\Lund\LegoRobotRuzzle\Opencv_WebCa\NXT\Working_with_bluetooth - Copie.nxc"
4	128	701		mov __TextOutArgs.Location.X, __signed_stack_001checkMessage
4	127	703	#line 127 "C:\Users\stan\Desktop\Lund\LegoRobotRuzzle\Opencv_WebCa\NXT\Working_with_bluetooth - Copie.nxc"
4	128	703		mov __TextOutArgs.Location.Y, __signed_stack_002checkMessage
4	127	705	#line 127 "C:\Users\stan\Desktop\Lund\LegoRobotRuzzle\Opencv_WebCa\NXT\Working_with_bluetooth - Copie.nxc"
4	128	705		set __TextOutArgs.Options, 0
4	127	708	#line 127 "C:\Users\stan\Desktop\Lund\LegoRobotRuzzle\Opencv_WebCa\NXT\Working_with_bluetooth - Copie.nxc"
4	128	708		mov __TextOutArgs.Text, __strbufcheckMessage
4	127	710	#line 127 "C:\Users\stan\Desktop\Lund\LegoRobotRuzzle\Opencv_WebCa\NXT\Working_with_bluetooth - Copie.nxc"
4	128	710		syscall 13, __TextOutArgs
4	127	713	#line 127 "C:\Users\stan\Desktop\Lund\LegoRobotRuzzle\Opencv_WebCa\NXT\Working_with_bluetooth - Copie.nxc"
4	128	713		mov __D0checkMessage, __TextOutArgs.Result
4	127	715	#line 127 "C:\Users\stan\Desktop\Lund\LegoRobotRuzzle\Opencv_WebCa\NXT\Working_with_bluetooth - Copie.nxc"
4	127	715	#line 127 "C:\Users\stan\Desktop\Lund\LegoRobotRuzzle\Opencv_WebCa\NXT\Working_with_bluetooth - Copie.nxc"
4	128	715	#line 128 "C:\Users\stan\Desktop\Lund\LegoRobotRuzzle\Opencv_WebCa\NXT\Working_with_bluetooth - Copie.nxc"
4	129	715		strcat __strbufcheckMessage, __checkMessage_7qG2_buffer1_7qG2_000
4	128	719	#line 128 "C:\Users\stan\Desktop\Lund\LegoRobotRuzzle\Opencv_WebCa\NXT\Working_with_bluetooth - Copie.nxc"
4	129	719		mov allRoutes, __strbufcheckMessage
4	128	721	#line 128 "C:\Users\stan\Desktop\Lund\LegoRobotRuzzle\Opencv_WebCa\NXT\Working_with_bluetooth - Copie.nxc"
4	129	721	#line 129 "C:\Users\stan\Desktop\Lund\LegoRobotRuzzle\Opencv_WebCa\NXT\Working_with_bluetooth - Copie.nxc"
4	130	721		subcall testRoute, __testRoute_return
4	129	723	#line 129 "C:\Users\stan\Desktop\Lund\LegoRobotRuzzle\Opencv_WebCa\NXT\Working_with_bluetooth - Copie.nxc"
4	130	723	#line 130 "C:\Users\stan\Desktop\Lund\LegoRobotRuzzle\Opencv_WebCa\NXT\Working_with_bluetooth - Copie.nxc"
4	131	723		set __checkMessage_7qG2_checkPath_7qG2_000, 0
4	130	726	#line 130 "C:\Users\stan\Desktop\Lund\LegoRobotRuzzle\Opencv_WebCa\NXT\Working_with_bluetooth - Copie.nxc"
4	130	726	#line 130 "C:\Users\stan\Desktop\Lund\LegoRobotRuzzle\Opencv_WebCa\NXT\Working_with_bluetooth - Copie.nxc"
4	132	726	#line 132 "C:\Users\stan\Desktop\Lund\LegoRobotRuzzle\Opencv_WebCa\NXT\Working_with_bluetooth - Copie.nxc"
4	132	726	#line 132 "C:\Users\stan\Desktop\Lund\LegoRobotRuzzle\Opencv_WebCa\NXT\Working_with_bluetooth - Copie.nxc"
4	132	726	#line 132 "C:\Users\stan\Desktop\Lund\LegoRobotRuzzle\Opencv_WebCa\NXT\Working_with_bluetooth - Copie.nxc"
4	132	726	#line 132 "C:\Users\stan\Desktop\Lund\LegoRobotRuzzle\Opencv_WebCa\NXT\Working_with_bluetooth - Copie.nxc"
4	133	726	#line 133 "C:\Users\stan\Desktop\Lund\LegoRobotRuzzle\Opencv_WebCa\NXT\Working_with_bluetooth - Copie.nxc"
4	134	726		jmp __ASM_Label_784
4	133	728	#line 133 "C:\Users\stan\Desktop\Lund\LegoRobotRuzzle\Opencv_WebCa\NXT\Working_with_bluetooth - Copie.nxc"
4	134	728		set __signed_stack_001checkMessage, 10
4	133	731	#line 133 "C:\Users\stan\Desktop\Lund\LegoRobotRuzzle\Opencv_WebCa\NXT\Working_with_bluetooth - Copie.nxc"
4	133	731	#line 133 "C:\Users\stan\Desktop\Lund\LegoRobotRuzzle\Opencv_WebCa\NXT\Working_with_bluetooth - Copie.nxc"
4	134	731		set __signed_stack_002checkMessage, 24
4	133	734	#line 133 "C:\Users\stan\Desktop\Lund\LegoRobotRuzzle\Opencv_WebCa\NXT\Working_with_bluetooth - Copie.nxc"
4	133	734	#line 133 "C:\Users\stan\Desktop\Lund\LegoRobotRuzzle\Opencv_WebCa\NXT\Working_with_bluetooth - Copie.nxc"
4	134	734		strcat __strbufcheckMessage, __constStr0018
4	134	738	#line 134 "C:\Users\stan\Desktop\Lund\LegoRobotRuzzle\Opencv_WebCa\NXT\Working_with_bluetooth - Copie.nxc"
4	134	738	#line 134 "C:\Users\stan\Desktop\Lund\LegoRobotRuzzle\Opencv_WebCa\NXT\Working_with_bluetooth - Copie.nxc"
4	135	738		mov __TextOutArgs.Location.X, __signed_stack_001checkMessage
4	134	740	#line 134 "C:\Users\stan\Desktop\Lund\LegoRobotRuzzle\Opencv_WebCa\NXT\Working_with_bluetooth - Copie.nxc"
4	135	740		mov __TextOutArgs.Location.Y, __signed_stack_002checkMessage
4	134	742	#line 134 "C:\Users\stan\Desktop\Lund\LegoRobotRuzzle\Opencv_WebCa\NXT\Working_with_bluetooth - Copie.nxc"
4	135	742		set __TextOutArgs.Options, 0
4	134	745	#line 134 "C:\Users\stan\Desktop\Lund\LegoRobotRuzzle\Opencv_WebCa\NXT\Working_with_bluetooth - Copie.nxc"
4	135	745		mov __TextOutArgs.Text, __strbufcheckMessage
4	134	747	#line 134 "C:\Users\stan\Desktop\Lund\LegoRobotRuzzle\Opencv_WebCa\NXT\Working_with_bluetooth - Copie.nxc"
4	135	747		syscall 13, __TextOutArgs
4	134	750	#line 134 "C:\Users\stan\Desktop\Lund\LegoRobotRuzzle\Opencv_WebCa\NXT\Working_with_bluetooth - Copie.nxc"
4	135	750		mov __D0checkMessage, __TextOutArgs.Result
4	134	752	#line 134 "C:\Users\stan\Desktop\Lund\LegoRobotRuzzle\Opencv_WebCa\NXT\Working_with_bluetooth - Copie.nxc"
4	134	752	#line 134 "C:\Users\stan\Desktop\Lund\LegoRobotRuzzle\Opencv_WebCa\NXT\Working_with_bluetooth - Copie.nxc"
4	135	752	#line 135 "C:\Users\stan\Desktop\Lund\LegoRobotRuzzle\Opencv_WebCa\NXT\Working_with_bluetooth - Copie.nxc"
4	136	752	#line 136 "C:\Users\stan\Desktop\Lund\LegoRobotRuzzle\Opencv_WebCa\NXT\Working_with_bluetooth - Copie.nxc"
4	137	752		mov __DU0checkMessage, __checkMessage_7qG2_checkPath_7qG2_000
4	140	754	#line 140 "C:\Users\stan\Desktop\Lund\LegoRobotRuzzle\Opencv_WebCa\NXT\Working_with_bluetooth - Copie.nxc"
4	141	754		tst 5, __D0checkMessage, __DU0checkMessage
4	140	757	#line 140 "C:\Users\stan\Desktop\Lund\LegoRobotRuzzle\Opencv_WebCa\NXT\Working_with_bluetooth - Copie.nxc"
4	141	757		brtst 4, __ASM_Label_637, __D0checkMessage
4	140	760	#line 140 "C:\Users\stan\Desktop\Lund\LegoRobotRuzzle\Opencv_WebCa\NXT\Working_with_bluetooth - Copie.nxc"
4	141	760		jmp __ASM_Label_636
4	140	762	#line 140 "C:\Users\stan\Desktop\Lund\LegoRobotRuzzle\Opencv_WebCa\NXT\Working_with_bluetooth - Copie.nxc"
4	140	762	#line 140 "C:\Users\stan\Desktop\Lund\LegoRobotRuzzle\Opencv_WebCa\NXT\Working_with_bluetooth - Copie.nxc"
4	141	762		subret __checkMessage_return
5	141	0	#line 141 "C:\Users\stan\Desktop\Lund\LegoRobotRuzzle\Opencv_WebCa\NXT\Working_with_bluetooth - Copie.nxc"
5	142	0		mov __PosRegSetAngle_7qG2_output_7qG2_000_inline_rotateMotorsToDegrees, __rotateMotorsToDegrees_7qG2_motorA_7qG2_000
5	141	2	#line 141 "C:\Users\stan\Desktop\Lund\LegoRobotRuzzle\Opencv_WebCa\NXT\Working_with_bluetooth - Copie.nxc"
5	141	2	#line 141 "C:\Users\stan\Desktop\Lund\LegoRobotRuzzle\Opencv_WebCa\NXT\Working_with_bluetooth - Copie.nxc"
5	142	2		mov __PosRegSetAngle_7qG2_angle_7qG2_000_inline_rotateMotorsToDegrees, __rotateMotorsToDegrees_7qG2_degreeA_7qG2_000
5	141	4	#line 141 "C:\Users\stan\Desktop\Lund\LegoRobotRuzzle\Opencv_WebCa\NXT\Working_with_bluetooth - Copie.nxc"
5	20915	4	#line 20915 "NXCDefs.h"
5	20916	4		mov __signed_stack_001PosRegSetAngle_inline_rotateMotorsToDegrees, __PosRegSetAngle_7qG2_angle_7qG2_000_inline_rotateMotorsToDegrees
5	20915	6	#line 20915 "NXCDefs.h"
5	20915	6	#line 20915 "NXCDefs.h"
5	20916	6		set __D0PosRegSetAngle_inline_rotateMotorsToDegrees, 4
5	20916	9	#line 20916 "NXCDefs.h"
5	20916	9	#line 20916 "NXCDefs.h"
5	20917	9		setout __PosRegSetAngle_7qG2_output_7qG2_000_inline_rotateMotorsToDegrees, 5, __signed_stack_001PosRegSetAngle_inline_rotateMotorsToDegrees, 0, __D0PosRegSetAngle_inline_rotateMotorsToDegrees
5	20916	16	#line 20916 "NXCDefs.h"
5	20916	16	#line 20916 "NXCDefs.h"
5	20916	16	#line 20916 "NXCDefs.h"
5	20916	16	#line 20916 "NXCDefs.h"
5	20916	16	#line 20916 "NXCDefs.h"
5	20916	16	#line 20916 "NXCDefs.h"
5	142	16	#line 142 "C:\Users\stan\Desktop\Lund\LegoRobotRuzzle\Opencv_WebCa\NXT\Working_with_bluetooth - Copie.nxc"
5	142	16	#line 142 "C:\Users\stan\Desktop\Lund\LegoRobotRuzzle\Opencv_WebCa\NXT\Working_with_bluetooth - Copie.nxc"
5	143	16		mov __PosRegSetAngle_7qG2_output_7qG2_000_inline_rotateMotorsToDegrees, __rotateMotorsToDegrees_7qG2_motorB_7qG2_000
5	142	18	#line 142 "C:\Users\stan\Desktop\Lund\LegoRobotRuzzle\Opencv_WebCa\NXT\Working_with_bluetooth - Copie.nxc"
5	142	18	#line 142 "C:\Users\stan\Desktop\Lund\LegoRobotRuzzle\Opencv_WebCa\NXT\Working_with_bluetooth - Copie.nxc"
5	143	18		mov __PosRegSetAngle_7qG2_angle_7qG2_000_inline_rotateMotorsToDegrees, __rotateMotorsToDegrees_7qG2_degreeB_7qG2_000
5	142	20	#line 142 "C:\Users\stan\Desktop\Lund\LegoRobotRuzzle\Opencv_WebCa\NXT\Working_with_bluetooth - Copie.nxc"
5	20915	20	#line 20915 "NXCDefs.h"
5	20916	20		mov __signed_stack_001PosRegSetAngle_inline_rotateMotorsToDegrees, __PosRegSetAngle_7qG2_angle_7qG2_000_inline_rotateMotorsToDegrees
5	20915	22	#line 20915 "NXCDefs.h"
5	20915	22	#line 20915 "NXCDefs.h"
5	20916	22		set __D0PosRegSetAngle_inline_rotateMotorsToDegrees, 4
5	20916	25	#line 20916 "NXCDefs.h"
5	20916	25	#line 20916 "NXCDefs.h"
5	20917	25		setout __PosRegSetAngle_7qG2_output_7qG2_000_inline_rotateMotorsToDegrees, 5, __signed_stack_001PosRegSetAngle_inline_rotateMotorsToDegrees, 0, __D0PosRegSetAngle_inline_rotateMotorsToDegrees
5	20916	32	#line 20916 "NXCDefs.h"
5	20916	32	#line 20916 "NXCDefs.h"
5	20916	32	#line 20916 "NXCDefs.h"
5	20916	32	#line 20916 "NXCDefs.h"
5	20916	32	#line 20916 "NXCDefs.h"
5	20916	32	#line 20916 "NXCDefs.h"
5	143	32	#line 143 "C:\Users\stan\Desktop\Lund\LegoRobotRuzzle\Opencv_WebCa\NXT\Working_with_bluetooth - Copie.nxc"
5	143	32	#line 143 "C:\Users\stan\Desktop\Lund\LegoRobotRuzzle\Opencv_WebCa\NXT\Working_with_bluetooth - Copie.nxc"
5	144	32		getout __signed_stack_001rotateMotorsToDegrees, __rotateMotorsToDegrees_7qG2_motorA_7qG2_000, 4
5	143	36	#line 143 "C:\Users\stan\Desktop\Lund\LegoRobotRuzzle\Opencv_WebCa\NXT\Working_with_bluetooth - Copie.nxc"
5	143	36	#line 143 "C:\Users\stan\Desktop\Lund\LegoRobotRuzzle\Opencv_WebCa\NXT\Working_with_bluetooth - Copie.nxc"
5	144	36		mov __D0rotateMotorsToDegrees, __rotateMotorsToDegrees_7qG2_degreeA_7qG2_000
5	143	38	#line 143 "C:\Users\stan\Desktop\Lund\LegoRobotRuzzle\Opencv_WebCa\NXT\Working_with_bluetooth - Copie.nxc"
5	144	38		cmp 5, __D0rotateMotorsToDegrees, __signed_stack_001rotateMotorsToDegrees, __D0rotateMotorsToDegrees
5	143	42	#line 143 "C:\Users\stan\Desktop\Lund\LegoRobotRuzzle\Opencv_WebCa\NXT\Working_with_bluetooth - Copie.nxc"
5	144	42		brtst 4, __ASM_Label_802, __D0rotateMotorsToDegrees
5	143	45	#line 143 "C:\Users\stan\Desktop\Lund\LegoRobotRuzzle\Opencv_WebCa\NXT\Working_with_bluetooth - Copie.nxc"
5	144	45		getout __signed_stack_001rotateMotorsToDegrees, __rotateMotorsToDegrees_7qG2_motorB_7qG2_000, 4
5	143	49	#line 143 "C:\Users\stan\Desktop\Lund\LegoRobotRuzzle\Opencv_WebCa\NXT\Working_with_bluetooth - Copie.nxc"
5	143	49	#line 143 "C:\Users\stan\Desktop\Lund\LegoRobotRuzzle\Opencv_WebCa\NXT\Working_with_bluetooth - Copie.nxc"
5	144	49		mov __D0rotateMotorsToDegrees, __rotateMotorsToDegrees_7qG2_degreeB_7qG2_000
5	143	51	#line 143 "C:\Users\stan\Desktop\Lund\LegoRobotRuzzle\Opencv_WebCa\NXT\Working_with_bluetooth - Copie.nxc"
5	144	51		cmp 5, __D0rotateMotorsToDegrees, __signed_stack_001rotateMotorsToDegrees, __D0rotateMotorsToDegrees
5	144	55	#line 144 "C:\Users\stan\Desktop\Lund\LegoRobotRuzzle\Opencv_WebCa\NXT\Working_with_bluetooth - Copie.nxc"
5	145	55		brtst 4, __ASM_Label_800, __D0rotateMotorsToDegrees
5	144	58	#line 144 "C:\Users\stan\Desktop\Lund\LegoRobotRuzzle\Opencv_WebCa\NXT\Working_with_bluetooth - Copie.nxc"
5	145	58		set __Wait_7qG2_ms_7qG2_000_inline_rotateMotorsToDegrees, 1
5	144	61	#line 144 "C:\Users\stan\Desktop\Lund\LegoRobotRuzzle\Opencv_WebCa\NXT\Working_with_bluetooth - Copie.nxc"
5	8551	61	#line 8551 "NXCDefs.h"
5	8552	61		waitv __Wait_7qG2_ms_7qG2_000_inline_rotateMotorsToDegrees
5	8551	63	#line 8551 "NXCDefs.h"
5	145	63	#line 145 "C:\Users\stan\Desktop\Lund\LegoRobotRuzzle\Opencv_WebCa\NXT\Working_with_bluetooth - Copie.nxc"
5	148	63	#line 148 "C:\Users\stan\Desktop\Lund\LegoRobotRuzzle\Opencv_WebCa\NXT\Working_with_bluetooth - Copie.nxc"
5	149	63		jmp __ASM_Label_799
5	148	65	#line 148 "C:\Users\stan\Desktop\Lund\LegoRobotRuzzle\Opencv_WebCa\NXT\Working_with_bluetooth - Copie.nxc"
5	148	65	#line 148 "C:\Users\stan\Desktop\Lund\LegoRobotRuzzle\Opencv_WebCa\NXT\Working_with_bluetooth - Copie.nxc"
5	149	65		subret __rotateMotorsToDegrees_return
6	149	0	#line 149 "C:\Users\stan\Desktop\Lund\LegoRobotRuzzle\Opencv_WebCa\NXT\Working_with_bluetooth - Copie.nxc"
6	150	0		mov __signed_stack_001goToCoordinate, __goToCoordinate_7qG2_sX_7qG2_000
6	149	2	#line 149 "C:\Users\stan\Desktop\Lund\LegoRobotRuzzle\Opencv_WebCa\NXT\Working_with_bluetooth - Copie.nxc"
6	149	2	#line 149 "C:\Users\stan\Desktop\Lund\LegoRobotRuzzle\Opencv_WebCa\NXT\Working_with_bluetooth - Copie.nxc"
6	150	2		mov __D0goToCoordinate, oldX
6	149	4	#line 149 "C:\Users\stan\Desktop\Lund\LegoRobotRuzzle\Opencv_WebCa\NXT\Working_with_bluetooth - Copie.nxc"
6	150	4		cmp 4, __D0goToCoordinate, __signed_stack_001goToCoordinate, __D0goToCoordinate
6	149	8	#line 149 "C:\Users\stan\Desktop\Lund\LegoRobotRuzzle\Opencv_WebCa\NXT\Working_with_bluetooth - Copie.nxc"
6	150	8		brtst 4, __ASM_Label_806, __D0goToCoordinate
6	149	11	#line 149 "C:\Users\stan\Desktop\Lund\LegoRobotRuzzle\Opencv_WebCa\NXT\Working_with_bluetooth - Copie.nxc"
6	150	11		mov __signed_stack_001goToCoordinate, __goToCoordinate_7qG2_sY_7qG2_000
6	149	13	#line 149 "C:\Users\stan\Desktop\Lund\LegoRobotRuzzle\Opencv_WebCa\NXT\Working_with_bluetooth - Copie.nxc"
6	149	13	#line 149 "C:\Users\stan\Desktop\Lund\LegoRobotRuzzle\Opencv_WebCa\NXT\Working_with_bluetooth - Copie.nxc"
6	150	13		mov __D0goToCoordinate, oldY
6	149	15	#line 149 "C:\Users\stan\Desktop\Lund\LegoRobotRuzzle\Opencv_WebCa\NXT\Working_with_bluetooth - Copie.nxc"
6	150	15		cmp 5, __D0goToCoordinate, __signed_stack_001goToCoordinate, __D0goToCoordinate
6	150	19	#line 150 "C:\Users\stan\Desktop\Lund\LegoRobotRuzzle\Opencv_WebCa\NXT\Working_with_bluetooth - Copie.nxc"
6	151	19		brtst 4, __ASM_Label_807, __D0goToCoordinate
6	150	22	#line 150 "C:\Users\stan\Desktop\Lund\LegoRobotRuzzle\Opencv_WebCa\NXT\Working_with_bluetooth - Copie.nxc"
6	151	22		set __rotateMotorToDegree_7qG2_motor_7qG2_000, 0
6	150	25	#line 150 "C:\Users\stan\Desktop\Lund\LegoRobotRuzzle\Opencv_WebCa\NXT\Working_with_bluetooth - Copie.nxc"
6	150	25	#line 150 "C:\Users\stan\Desktop\Lund\LegoRobotRuzzle\Opencv_WebCa\NXT\Working_with_bluetooth - Copie.nxc"
6	151	25		set __signed_stack_001goToCoordinate, 0
6	150	28	#line 150 "C:\Users\stan\Desktop\Lund\LegoRobotRuzzle\Opencv_WebCa\NXT\Working_with_bluetooth - Copie.nxc"
6	150	28	#line 150 "C:\Users\stan\Desktop\Lund\LegoRobotRuzzle\Opencv_WebCa\NXT\Working_with_bluetooth - Copie.nxc"
6	151	28		mov __signed_stack_002goToCoordinate, __goToCoordinate_7qG2_sY_7qG2_000
6	150	30	#line 150 "C:\Users\stan\Desktop\Lund\LegoRobotRuzzle\Opencv_WebCa\NXT\Working_with_bluetooth - Copie.nxc"
6	150	30	#line 150 "C:\Users\stan\Desktop\Lund\LegoRobotRuzzle\Opencv_WebCa\NXT\Working_with_bluetooth - Copie.nxc"
6	151	30		mov __D0goToCoordinate, degreeBetweenYTile
6	150	32	#line 150 "C:\Users\stan\Desktop\Lund\LegoRobotRuzzle\Opencv_WebCa\NXT\Working_with_bluetooth - Copie.nxc"
6	151	32		mul __D0goToCoordinate, __signed_stack_002goToCoordinate, __D0goToCoordinate
6	150	36	#line 150 "C:\Users\stan\Desktop\Lund\LegoRobotRuzzle\Opencv_WebCa\NXT\Working_with_bluetooth - Copie.nxc"
6	151	36		sub __signed_stack_001goToCoordinate, __signed_stack_001goToCoordinate, __D0goToCoordinate
6	150	40	#line 150 "C:\Users\stan\Desktop\Lund\LegoRobotRuzzle\Opencv_WebCa\NXT\Working_with_bluetooth - Copie.nxc"
6	150	40	#line 150 "C:\Users\stan\Desktop\Lund\LegoRobotRuzzle\Opencv_WebCa\NXT\Working_with_bluetooth - Copie.nxc"
6	151	40		mov __D0goToCoordinate, Y0
6	150	42	#line 150 "C:\Users\stan\Desktop\Lund\LegoRobotRuzzle\Opencv_WebCa\NXT\Working_with_bluetooth - Copie.nxc"
6	151	42		add __rotateMotorToDegree_7qG2_degree_7qG2_000, __signed_stack_001goToCoordinate, __D0goToCoordinate
6	150	46	#line 150 "C:\Users\stan\Desktop\Lund\LegoRobotRuzzle\Opencv_WebCa\NXT\Working_with_bluetooth - Copie.nxc"
6	151	46	#line 151 "C:\Users\stan\Desktop\Lund\LegoRobotRuzzle\Opencv_WebCa\NXT\Working_with_bluetooth - Copie.nxc"
6	152	46		subcall rotateMotorToDegree, __rotateMotorToDegree_return
6	151	48	#line 151 "C:\Users\stan\Desktop\Lund\LegoRobotRuzzle\Opencv_WebCa\NXT\Working_with_bluetooth - Copie.nxc"
6	151	48	#line 151 "C:\Users\stan\Desktop\Lund\LegoRobotRuzzle\Opencv_WebCa\NXT\Working_with_bluetooth - Copie.nxc"
6	152	48		jmp __ASM_Label_812
6	151	50	#line 151 "C:\Users\stan\Desktop\Lund\LegoRobotRuzzle\Opencv_WebCa\NXT\Working_with_bluetooth - Copie.nxc"
6	152	50		mov __signed_stack_001goToCoordinate, __goToCoordinate_7qG2_sY_7qG2_000
6	151	52	#line 151 "C:\Users\stan\Desktop\Lund\LegoRobotRuzzle\Opencv_WebCa\NXT\Working_with_bluetooth - Copie.nxc"
6	151	52	#line 151 "C:\Users\stan\Desktop\Lund\LegoRobotRuzzle\Opencv_WebCa\NXT\Working_with_bluetooth - Copie.nxc"
6	152	52		mov __D0goToCoordinate, oldY
6	151	54	#line 151 "C:\Users\stan\Desktop\Lund\LegoRobotRuzzle\Opencv_WebCa\NXT\Working_with_bluetooth - Copie.nxc"
6	152	54		cmp 4, __D0goToCoordinate, __signed_stack_001goToCoordinate, __D0goToCoordinate
6	151	58	#line 151 "C:\Users\stan\Desktop\Lund\LegoRobotRuzzle\Opencv_WebCa\NXT\Working_with_bluetooth - Copie.nxc"
6	152	58		brtst 4, __ASM_Label_814, __D0goToCoordinate
6	151	61	#line 151 "C:\Users\stan\Desktop\Lund\LegoRobotRuzzle\Opencv_WebCa\NXT\Working_with_bluetooth - Copie.nxc"
6	152	61		mov __signed_stack_001goToCoordinate, __goToCoordinate_7qG2_sX_7qG2_000
6	151	63	#line 151 "C:\Users\stan\Desktop\Lund\LegoRobotRuzzle\Opencv_WebCa\NXT\Working_with_bluetooth - Copie.nxc"
6	151	63	#line 151 "C:\Users\stan\Desktop\Lund\LegoRobotRuzzle\Opencv_WebCa\NXT\Working_with_bluetooth - Copie.nxc"
6	152	63		mov __D0goToCoordinate, oldX
6	151	65	#line 151 "C:\Users\stan\Desktop\Lund\LegoRobotRuzzle\Opencv_WebCa\NXT\Working_with_bluetooth - Copie.nxc"
6	152	65		cmp 5, __D0goToCoordinate, __signed_stack_001goToCoordinate, __D0goToCoordinate
6	152	69	#line 152 "C:\Users\stan\Desktop\Lund\LegoRobotRuzzle\Opencv_WebCa\NXT\Working_with_bluetooth - Copie.nxc"
6	153	69		brtst 4, __ASM_Label_815, __D0goToCoordinate
6	152	72	#line 152 "C:\Users\stan\Desktop\Lund\LegoRobotRuzzle\Opencv_WebCa\NXT\Working_with_bluetooth - Copie.nxc"
6	153	72		set __rotateMotorToDegree_7qG2_motor_7qG2_000, 2
6	152	75	#line 152 "C:\Users\stan\Desktop\Lund\LegoRobotRuzzle\Opencv_WebCa\NXT\Working_with_bluetooth - Copie.nxc"
6	152	75	#line 152 "C:\Users\stan\Desktop\Lund\LegoRobotRuzzle\Opencv_WebCa\NXT\Working_with_bluetooth - Copie.nxc"
6	153	75		set __signed_stack_001goToCoordinate, 0
6	152	78	#line 152 "C:\Users\stan\Desktop\Lund\LegoRobotRuzzle\Opencv_WebCa\NXT\Working_with_bluetooth - Copie.nxc"
6	152	78	#line 152 "C:\Users\stan\Desktop\Lund\LegoRobotRuzzle\Opencv_WebCa\NXT\Working_with_bluetooth - Copie.nxc"
6	153	78		mov __signed_stack_002goToCoordinate, __goToCoordinate_7qG2_sX_7qG2_000
6	152	80	#line 152 "C:\Users\stan\Desktop\Lund\LegoRobotRuzzle\Opencv_WebCa\NXT\Working_with_bluetooth - Copie.nxc"
6	152	80	#line 152 "C:\Users\stan\Desktop\Lund\LegoRobotRuzzle\Opencv_WebCa\NXT\Working_with_bluetooth - Copie.nxc"
6	153	80		mov __D0goToCoordinate, degreeBetweenXTile
6	152	82	#line 152 "C:\Users\stan\Desktop\Lund\LegoRobotRuzzle\Opencv_WebCa\NXT\Working_with_bluetooth - Copie.nxc"
6	153	82		mul __D0goToCoordinate, __signed_stack_002goToCoordinate, __D0goToCoordinate
6	152	86	#line 152 "C:\Users\stan\Desktop\Lund\LegoRobotRuzzle\Opencv_WebCa\NXT\Working_with_bluetooth - Copie.nxc"
6	153	86		sub __signed_stack_001goToCoordinate, __signed_stack_001goToCoordinate, __D0goToCoordinate
6	152	90	#line 152 "C:\Users\stan\Desktop\Lund\LegoRobotRuzzle\Opencv_WebCa\NXT\Working_with_bluetooth - Copie.nxc"
6	152	90	#line 152 "C:\Users\stan\Desktop\Lund\LegoRobotRuzzle\Opencv_WebCa\NXT\Working_with_bluetooth - Copie.nxc"
6	153	90		mov __D0goToCoordinate, X0
6	152	92	#line 152 "C:\Users\stan\Desktop\Lund\LegoRobotRuzzle\Opencv_WebCa\NXT\Working_with_bluetooth - Copie.nxc"
6	153	92		add __rotateMotorToDegree_7qG2_degree_7qG2_000, __signed_stack_001goToCoordinate, __D0goToCoordinate
6	152	96	#line 152 "C:\Users\stan\Desktop\Lund\LegoRobotRuzzle\Opencv_WebCa\NXT\Working_with_bluetooth - Copie.nxc"
6	153	96	#line 153 "C:\Users\stan\Desktop\Lund\LegoRobotRuzzle\Opencv_WebCa\NXT\Working_with_bluetooth - Copie.nxc"
6	154	96		subcall rotateMotorToDegree, __rotateMotorToDegree_return
6	153	98	#line 153 "C:\Users\stan\Desktop\Lund\LegoRobotRuzzle\Opencv_WebCa\NXT\Working_with_bluetooth - Copie.nxc"
6	154	98	#line 154 "C:\Users\stan\Desktop\Lund\LegoRobotRuzzle\Opencv_WebCa\NXT\Working_with_bluetooth - Copie.nxc"
6	155	98		jmp __ASM_Label_820
6	154	100	#line 154 "C:\Users\stan\Desktop\Lund\LegoRobotRuzzle\Opencv_WebCa\NXT\Working_with_bluetooth - Copie.nxc"
6	155	100		set __rotateMotorsToDegrees_7qG2_motorA_7qG2_000, 2
6	154	103	#line 154 "C:\Users\stan\Desktop\Lund\LegoRobotRuzzle\Opencv_WebCa\NXT\Working_with_bluetooth - Copie.nxc"
6	154	103	#line 154 "C:\Users\stan\Desktop\Lund\LegoRobotRuzzle\Opencv_WebCa\NXT\Working_with_bluetooth - Copie.nxc"
6	155	103		set __signed_stack_001goToCoordinate, 0
6	154	106	#line 154 "C:\Users\stan\Desktop\Lund\LegoRobotRuzzle\Opencv_WebCa\NXT\Working_with_bluetooth - Copie.nxc"
6	154	106	#line 154 "C:\Users\stan\Desktop\Lund\LegoRobotRuzzle\Opencv_WebCa\NXT\Working_with_bluetooth - Copie.nxc"
6	155	106		mov __signed_stack_002goToCoordinate, __goToCoordinate_7qG2_sX_7qG2_000
6	154	108	#line 154 "C:\Users\stan\Desktop\Lund\LegoRobotRuzzle\Opencv_WebCa\NXT\Working_with_bluetooth - Copie.nxc"
6	154	108	#line 154 "C:\Users\stan\Desktop\Lund\LegoRobotRuzzle\Opencv_WebCa\NXT\Working_with_bluetooth - Copie.nxc"
6	155	108		mov __D0goToCoordinate, degreeBetweenXTile
6	154	110	#line 154 "C:\Users\stan\Desktop\Lund\LegoRobotRuzzle\Opencv_WebCa\NXT\Working_with_bluetooth - Copie.nxc"
6	155	110		mul __D0goToCoordinate, __signed_stack_002goToCoordinate, __D0goToCoordinate
6	154	114	#line 154 "C:\Users\stan\Desktop\Lund\LegoRobotRuzzle\Opencv_WebCa\NXT\Working_with_bluetooth - Copie.nxc"
6	155	114		sub __signed_stack_001goToCoordinate, __signed_stack_001goToCoordinate, __D0goToCoordinate
6	154	118	#line 154 "C:\Users\stan\Desktop\Lund\LegoRobotRuzzle\Opencv_WebCa\NXT\Working_with_bluetooth - Copie.nxc"
6	154	118	#line 154 "C:\Users\stan\Desktop\Lund\LegoRobotRuzzle\Opencv_WebCa\NXT\Working_with_bluetooth - Copie.nxc"
6	155	118		mov __D0goToCoordinate, X0
6	154	120	#line 154 "C:\Users\stan\Desktop\Lund\LegoRobotRuzzle\Opencv_WebCa\NXT\Working_with_bluetooth - Copie.nxc"
6	155	120		add __rotateMotorsToDegrees_7qG2_degreeA_7qG2_000, __signed_stack_001goToCoordinate, __D0goToCoordinate
6	154	124	#line 154 "C:\Users\stan\Desktop\Lund\LegoRobotRuzzle\Opencv_WebCa\NXT\Working_with_bluetooth - Copie.nxc"
6	154	124	#line 154 "C:\Users\stan\Desktop\Lund\LegoRobotRuzzle\Opencv_WebCa\NXT\Working_with_bluetooth - Copie.nxc"
6	155	124		set __rotateMotorsToDegrees_7qG2_motorB_7qG2_000, 0
6	154	127	#line 154 "C:\Users\stan\Desktop\Lund\LegoRobotRuzzle\Opencv_WebCa\NXT\Working_with_bluetooth - Copie.nxc"
6	154	127	#line 154 "C:\Users\stan\Desktop\Lund\LegoRobotRuzzle\Opencv_WebCa\NXT\Working_with_bluetooth - Copie.nxc"
6	155	127		set __signed_stack_001goToCoordinate, 0
6	154	130	#line 154 "C:\Users\stan\Desktop\Lund\LegoRobotRuzzle\Opencv_WebCa\NXT\Working_with_bluetooth - Copie.nxc"
6	154	130	#line 154 "C:\Users\stan\Desktop\Lund\LegoRobotRuzzle\Opencv_WebCa\NXT\Working_with_bluetooth - Copie.nxc"
6	155	130		mov __signed_stack_002goToCoordinate, __goToCoordinate_7qG2_sY_7qG2_000
6	154	132	#line 154 "C:\Users\stan\Desktop\Lund\LegoRobotRuzzle\Opencv_WebCa\NXT\Working_with_bluetooth - Copie.nxc"
6	154	132	#line 154 "C:\Users\stan\Desktop\Lund\LegoRobotRuzzle\Opencv_WebCa\NXT\Working_with_bluetooth - Copie.nxc"
6	155	132		mov __D0goToCoordinate, degreeBetweenYTile
6	154	134	#line 154 "C:\Users\stan\Desktop\Lund\LegoRobotRuzzle\Opencv_WebCa\NXT\Working_with_bluetooth - Copie.nxc"
6	155	134		mul __D0goToCoordinate, __signed_stack_002goToCoordinate, __D0goToCoordinate
6	154	138	#line 154 "C:\Users\stan\Desktop\Lund\LegoRobotRuzzle\Opencv_WebCa\NXT\Working_with_bluetooth - Copie.nxc"
6	155	138		sub __signed_stack_001goToCoordinate, __signed_stack_001goToCoordinate, __D0goToCoordinate
6	154	142	#line 154 "C:\Users\stan\Desktop\Lund\LegoRobotRuzzle\Opencv_WebCa\NXT\Working_with_bluetooth - Copie.nxc"
6	154	142	#line 154 "C:\Users\stan\Desktop\Lund\LegoRobotRuzzle\Opencv_WebCa\NXT\Working_with_bluetooth - Copie.nxc"
6	155	142		mov __D0goToCoordinate, Y0
6	154	144	#line 154 "C:\Users\stan\Desktop\Lund\LegoRobotRuzzle\Opencv_WebCa\NXT\Working_with_bluetooth - Copie.nxc"
6	155	144		add __rotateMotorsToDegrees_7qG2_degreeB_7qG2_000, __signed_stack_001goToCoordinate, __D0goToCoordinate
6	154	148	#line 154 "C:\Users\stan\Desktop\Lund\LegoRobotRuzzle\Opencv_WebCa\NXT\Working_with_bluetooth - Copie.nxc"
6	155	148	#line 155 "C:\Users\stan\Desktop\Lund\LegoRobotRuzzle\Opencv_WebCa\NXT\Working_with_bluetooth - Copie.nxc"
6	156	148		subcall rotateMotorsToDegrees, __rotateMotorsToDegrees_return
6	155	150	#line 155 "C:\Users\stan\Desktop\Lund\LegoRobotRuzzle\Opencv_WebCa\NXT\Working_with_bluetooth - Copie.nxc"
6	156	150	#line 156 "C:\Users\stan\Desktop\Lund\LegoRobotRuzzle\Opencv_WebCa\NXT\Working_with_bluetooth - Copie.nxc"
6	156	150	#line 156 "C:\Users\stan\Desktop\Lund\LegoRobotRuzzle\Opencv_WebCa\NXT\Working_with_bluetooth - Copie.nxc"
6	157	150	#line 157 "C:\Users\stan\Desktop\Lund\LegoRobotRuzzle\Opencv_WebCa\NXT\Working_with_bluetooth - Copie.nxc"
6	158	150		mov oldX, __goToCoordinate_7qG2_sX_7qG2_000
6	157	152	#line 157 "C:\Users\stan\Desktop\Lund\LegoRobotRuzzle\Opencv_WebCa\NXT\Working_with_bluetooth - Copie.nxc"
6	157	152	#line 157 "C:\Users\stan\Desktop\Lund\LegoRobotRuzzle\Opencv_WebCa\NXT\Working_with_bluetooth - Copie.nxc"
6	158	152	#line 158 "C:\Users\stan\Desktop\Lund\LegoRobotRuzzle\Opencv_WebCa\NXT\Working_with_bluetooth - Copie.nxc"
6	159	152		mov oldY, __goToCoordinate_7qG2_sY_7qG2_000
6	158	154	#line 158 "C:\Users\stan\Desktop\Lund\LegoRobotRuzzle\Opencv_WebCa\NXT\Working_with_bluetooth - Copie.nxc"
6	158	154	#line 158 "C:\Users\stan\Desktop\Lund\LegoRobotRuzzle\Opencv_WebCa\NXT\Working_with_bluetooth - Copie.nxc"
6	164	154	#line 164 "C:\Users\stan\Desktop\Lund\LegoRobotRuzzle\Opencv_WebCa\NXT\Working_with_bluetooth - Copie.nxc"
6	165	154		subret __goToCoordinate_return
7	167	0	#line 167 "C:\Users\stan\Desktop\Lund\LegoRobotRuzzle\Opencv_WebCa\NXT\Working_with_bluetooth - Copie.nxc"
7	168	0		mov __DU0timeKeeping, startTimer
7	168	2	#line 168 "C:\Users\stan\Desktop\Lund\LegoRobotRuzzle\Opencv_WebCa\NXT\Working_with_bluetooth - Copie.nxc"
7	169	2		tst 5, __D0timeKeeping, __DU0timeKeeping
7	168	5	#line 168 "C:\Users\stan\Desktop\Lund\LegoRobotRuzzle\Opencv_WebCa\NXT\Working_with_bluetooth - Copie.nxc"
7	169	5		brtst 4, __ASM_Label_834, __D0timeKeeping
7	168	8	#line 168 "C:\Users\stan\Desktop\Lund\LegoRobotRuzzle\Opencv_WebCa\NXT\Working_with_bluetooth - Copie.nxc"
7	169	8		set __signed_stack_001timeKeeping, 3
7	168	11	#line 168 "C:\Users\stan\Desktop\Lund\LegoRobotRuzzle\Opencv_WebCa\NXT\Working_with_bluetooth - Copie.nxc"
7	168	11	#line 168 "C:\Users\stan\Desktop\Lund\LegoRobotRuzzle\Opencv_WebCa\NXT\Working_with_bluetooth - Copie.nxc"
7	169	11		set __D0timeKeeping, 1
7	168	14	#line 168 "C:\Users\stan\Desktop\Lund\LegoRobotRuzzle\Opencv_WebCa\NXT\Working_with_bluetooth - Copie.nxc"
7	169	14		acquire __RBtnMutex
7	168	15	#line 168 "C:\Users\stan\Desktop\Lund\LegoRobotRuzzle\Opencv_WebCa\NXT\Working_with_bluetooth - Copie.nxc"
7	169	15		mov __RBtnArgs.Index, __signed_stack_001timeKeeping
7	168	17	#line 168 "C:\Users\stan\Desktop\Lund\LegoRobotRuzzle\Opencv_WebCa\NXT\Working_with_bluetooth - Copie.nxc"
7	169	17		mov __RBtnArgs.Reset, __D0timeKeeping
7	168	19	#line 168 "C:\Users\stan\Desktop\Lund\LegoRobotRuzzle\Opencv_WebCa\NXT\Working_with_bluetooth - Copie.nxc"
7	169	19		syscall 20, __RBtnArgs
7	168	22	#line 168 "C:\Users\stan\Desktop\Lund\LegoRobotRuzzle\Opencv_WebCa\NXT\Working_with_bluetooth - Copie.nxc"
7	169	22		mov __D0timeKeeping, __RBtnArgs.Pressed
7	168	24	#line 168 "C:\Users\stan\Desktop\Lund\LegoRobotRuzzle\Opencv_WebCa\NXT\Working_with_bluetooth - Copie.nxc"
7	169	24		release __RBtnMutex
7	169	25	#line 169 "C:\Users\stan\Desktop\Lund\LegoRobotRuzzle\Opencv_WebCa\NXT\Working_with_bluetooth - Copie.nxc"
7	170	25		tst 5, __D0timeKeeping, __D0timeKeeping
7	169	28	#line 169 "C:\Users\stan\Desktop\Lund\LegoRobotRuzzle\Opencv_WebCa\NXT\Working_with_bluetooth - Copie.nxc"
7	170	28		brtst 4, __ASM_Label_843, __D0timeKeeping
7	170	31	#line 170 "C:\Users\stan\Desktop\Lund\LegoRobotRuzzle\Opencv_WebCa\NXT\Working_with_bluetooth - Copie.nxc"
7	171	31		set continueExecutionFlag, 0
7	170	34	#line 170 "C:\Users\stan\Desktop\Lund\LegoRobotRuzzle\Opencv_WebCa\NXT\Working_with_bluetooth - Copie.nxc"
7	170	34	#line 170 "C:\Users\stan\Desktop\Lund\LegoRobotRuzzle\Opencv_WebCa\NXT\Working_with_bluetooth - Copie.nxc"
7	171	34	#line 171 "C:\Users\stan\Desktop\Lund\LegoRobotRuzzle\Opencv_WebCa\NXT\Working_with_bluetooth - Copie.nxc"
7	172	34		set startTimer, 0
7	171	37	#line 171 "C:\Users\stan\Desktop\Lund\LegoRobotRuzzle\Opencv_WebCa\NXT\Working_with_bluetooth - Copie.nxc"
7	171	37	#line 171 "C:\Users\stan\Desktop\Lund\LegoRobotRuzzle\Opencv_WebCa\NXT\Working_with_bluetooth - Copie.nxc"
7	172	37	#line 172 "C:\Users\stan\Desktop\Lund\LegoRobotRuzzle\Opencv_WebCa\NXT\Working_with_bluetooth - Copie.nxc"
7	172	37	#line 172 "C:\Users\stan\Desktop\Lund\LegoRobotRuzzle\Opencv_WebCa\NXT\Working_with_bluetooth - Copie.nxc"
7	173	37		gettick __unsigned_stack_001timeKeeping
7	172	39	#line 172 "C:\Users\stan\Desktop\Lund\LegoRobotRuzzle\Opencv_WebCa\NXT\Working_with_bluetooth - Copie.nxc"
7	173	39	#line 173 "C:\Users\stan\Desktop\Lund\LegoRobotRuzzle\Opencv_WebCa\NXT\Working_with_bluetooth - Copie.nxc"
7	173	39	#line 173 "C:\Users\stan\Desktop\Lund\LegoRobotRuzzle\Opencv_WebCa\NXT\Working_with_bluetooth - Copie.nxc"
7	174	39		sub __timeKeeping_7qG2_deltaTime_7qG2_001, __unsigned_stack_001timeKeeping, startTime
7	173	43	#line 173 "C:\Users\stan\Desktop\Lund\LegoRobotRuzzle\Opencv_WebCa\NXT\Working_with_bluetooth - Copie.nxc"
7	173	43	#line 173 "C:\Users\stan\Desktop\Lund\LegoRobotRuzzle\Opencv_WebCa\NXT\Working_with_bluetooth - Copie.nxc"
7	174	43		mov __signed_stack_001timeKeeping, __timeKeeping_7qG2_deltaTime_7qG2_001
7	173	45	#line 173 "C:\Users\stan\Desktop\Lund\LegoRobotRuzzle\Opencv_WebCa\NXT\Working_with_bluetooth - Copie.nxc"
7	173	45	#line 173 "C:\Users\stan\Desktop\Lund\LegoRobotRuzzle\Opencv_WebCa\NXT\Working_with_bluetooth - Copie.nxc"
7	174	45		mov __D0timeKeeping, __constVal140000
7	173	47	#line 173 "C:\Users\stan\Desktop\Lund\LegoRobotRuzzle\Opencv_WebCa\NXT\Working_with_bluetooth - Copie.nxc"
7	174	47		cmp 1, __D0timeKeeping, __signed_stack_001timeKeeping, __D0timeKeeping
7	174	51	#line 174 "C:\Users\stan\Desktop\Lund\LegoRobotRuzzle\Opencv_WebCa\NXT\Working_with_bluetooth - Copie.nxc"
7	175	51		brtst 4, __ASM_Label_852, __D0timeKeeping
7	175	54	#line 175 "C:\Users\stan\Desktop\Lund\LegoRobotRuzzle\Opencv_WebCa\NXT\Working_with_bluetooth - Copie.nxc"
7	176	54		set continueExecutionFlag, 0
7	175	57	#line 175 "C:\Users\stan\Desktop\Lund\LegoRobotRuzzle\Opencv_WebCa\NXT\Working_with_bluetooth - Copie.nxc"
7	175	57	#line 175 "C:\Users\stan\Desktop\Lund\LegoRobotRuzzle\Opencv_WebCa\NXT\Working_with_bluetooth - Copie.nxc"
7	176	57	#line 176 "C:\Users\stan\Desktop\Lund\LegoRobotRuzzle\Opencv_WebCa\NXT\Working_with_bluetooth - Copie.nxc"
7	177	57		set startTimer, 0
7	176	60	#line 176 "C:\Users\stan\Desktop\Lund\LegoRobotRuzzle\Opencv_WebCa\NXT\Working_with_bluetooth - Copie.nxc"
7	176	60	#line 176 "C:\Users\stan\Desktop\Lund\LegoRobotRuzzle\Opencv_WebCa\NXT\Working_with_bluetooth - Copie.nxc"
7	177	60	#line 177 "C:\Users\stan\Desktop\Lund\LegoRobotRuzzle\Opencv_WebCa\NXT\Working_with_bluetooth - Copie.nxc"
7	177	60	#line 177 "C:\Users\stan\Desktop\Lund\LegoRobotRuzzle\Opencv_WebCa\NXT\Working_with_bluetooth - Copie.nxc"
7	178	60		set __Wait_7qG2_ms_7qG2_000_inline_timeKeeping, 1000
7	177	63	#line 177 "C:\Users\stan\Desktop\Lund\LegoRobotRuzzle\Opencv_WebCa\NXT\Working_with_bluetooth - Copie.nxc"
7	8551	63	#line 8551 "NXCDefs.h"
7	8552	63		waitv __Wait_7qG2_ms_7qG2_000_inline_timeKeeping
7	8551	65	#line 8551 "NXCDefs.h"
7	178	65	#line 178 "C:\Users\stan\Desktop\Lund\LegoRobotRuzzle\Opencv_WebCa\NXT\Working_with_bluetooth - Copie.nxc"
7	182	65	#line 182 "C:\Users\stan\Desktop\Lund\LegoRobotRuzzle\Opencv_WebCa\NXT\Working_with_bluetooth - Copie.nxc"
7	183	65		jmp __ASM_Label_833
7	182	67	#line 182 "C:\Users\stan\Desktop\Lund\LegoRobotRuzzle\Opencv_WebCa\NXT\Working_with_bluetooth - Copie.nxc"
7	183	67		exit -1, -1
8	238	0	#line 238 "C:\Users\stan\Desktop\Lund\LegoRobotRuzzle\Opencv_WebCa\NXT\Working_with_bluetooth - Copie.nxc"
8	239	0		subret ____initialize_global_data_return
#CLUMPS
Clump	Name	Offset	File
0	main	0	C:\Users\stan\Desktop\Lund\LegoRobotRuzzle\Opencv_WebCa\NXT\Working_with_bluetooth - Copie.nxc
1	PlaySound	532	NXCDefs.h
2	testRoute	952	C:\Users\stan\Desktop\Lund\LegoRobotRuzzle\Opencv_WebCa\NXT\Working_with_bluetooth - Copie.nxc
3	rotateMotorToDegree	1024	C:\Users\stan\Desktop\Lund\LegoRobotRuzzle\Opencv_WebCa\NXT\Working_with_bluetooth - Copie.nxc
4	checkMessage	1062	C:\Users\stan\Desktop\Lund\LegoRobotRuzzle\Opencv_WebCa\NXT\Working_with_bluetooth - Copie.nxc
5	rotateMotorsToDegrees	1826	C:\Users\stan\Desktop\Lund\LegoRobotRuzzle\Opencv_WebCa\NXT\Working_with_bluetooth - Copie.nxc
6	goToCoordinate	1893	C:\Users\stan\Desktop\Lund\LegoRobotRuzzle\Opencv_WebCa\NXT\Working_with_bluetooth - Copie.nxc
7	timeKeeping	2049	C:\Users\stan\Desktop\Lund\LegoRobotRuzzle\Opencv_WebCa\NXT\Working_with_bluetooth - Copie.nxc
8	__initialize_global_data	2119	C:\Users\stan\Desktop\Lund\LegoRobotRuzzle\Opencv_WebCa\NXT\Working_with_bluetooth - Copie.nxc
